(lp0
(dp1
S'Company'
p2
S'abm'
p3
sS'Ordered'
p4
S'25-Oct'
p5
sS'Notes'
p6
S''
p7
sS'PO'
p8
S'3315'
p9
sS'Client'
p10
S'mfc'
p11
sS'Rep'
p12
S'benny'
p13
sS'Completed'
p14
S'done'
p15
sa(dp16
g2
S'boss'
p17
sg4
S'7-Nov'
p18
sg6
g7
sg8
S'3359'
p19
sg10
S'pie'
p20
sg12
S'rc'
p21
sg14
S'done'
p22
sa(dp23
g2
S'boss'
p24
sg4
S'31-Oct'
p25
sg6
g7
sg8
S'3336'
p26
sg10
S'plymouth'
p27
sg12
S'bm'
p28
sg14
S'done'
p29
sa(dp30
g2
S'boss'
p31
sg4
S'25-Oct'
p32
sg6
g7
sg8
S'3320'
p33
sg10
S'imortgage'
p34
sg12
S'ar'
p35
sg14
S'done'
p36
sa(dp37
g2
S'cherryman'
p38
sg4
S'6-Sep'
p39
sg6
g7
sg8
S'3256'
p40
sg10
S'tony'
p41
sg12
S'jw'
p42
sg14
S'done'
p43
sa(dp44
g2
S'boss'
p45
sg4
S'22-Oct'
p46
sg6
g7
sg8
S'3312'
p47
sg10
S'wearable'
p48
sg12
S'mr'
p49
sg14
S'done'
p50
sa(dp51
g2
S'cherryman'
p52
sg4
S'11-Sep'
p53
sg6
g7
sg8
S'3260'
p54
sg10
S'voyetra'
p55
sg12
S'pj'
p56
sg14
S'done'
p57
sa(dp58
g2
S'cherryman'
p59
sg4
S'12-Sep'
p60
sg6
g7
sg8
S'3262'
p61
sg10
S'sabal'
p62
sg12
S'rc'
p63
sg14
S'done'
p64
sa(dp65
g2
S'cherryman'
p66
sg4
S'18-Sep'
p67
sg6
g7
sg8
S'3273'
p68
sg10
S'Pioneer'
p69
sg12
S'BM'
p70
sg14
S'done'
p71
sa(dp72
g2
S'cherryman'
p73
sg4
S'23-Sep'
p74
sg6
g7
sg8
S'3280'
p75
sg10
S'mbmg'
p76
sg12
S'rc'
p77
sg14
S'done'
p78
sa(dp79
g2
S'cherryman'
p80
sg4
S'20-Sep'
p81
sg6
g7
sg8
S'3275'
p82
sg10
S'celgene'
p83
sg12
S'JW'
p84
sg14
S'done'
p85
sa(dp86
g2
S'cherryman'
p87
sg4
S'5-Nov'
p88
sg6
g7
sg8
S'3348'
p89
sg10
S'communicus'
p90
sg12
S'jw'
p91
sg14
S'done'
p92
sa(dp93
g2
S'cherryman'
p94
sg4
S'4-Nov'
p95
sg6
g7
sg8
S'3342'
p96
sg10
S'sd showroom'
p97
sg12
S'mr'
p98
sg14
S'done'
p99
sa(dp100
g2
S'cherryman'
p101
sg4
S'6-Nov'
p102
sg6
g7
sg8
S'3356'
p103
sg10
S'first choice'
p104
sg12
S'jw'
p105
sg14
S'done'
p106
sa(dp107
g2
S'cherryman'
p108
sg4
S'31-Oct'
p109
sg6
g7
sg8
S'3335'
p110
sg10
S'showroom'
p111
sg12
S'kev'
p112
sg14
S'done'
p113
sa(dp114
g2
S'cherryman'
p115
sg4
S'31-Oct'
p116
sg6
g7
sg8
S'3337'
p117
sg10
S'plymouth'
p118
sg12
S'bm'
p119
sg14
S'done'
p120
sa(dp121
g2
S'cherryman'
p122
sg4
S'30-Oct'
p123
sg6
g7
sg8
S'3333'
p124
sg10
S'av air '
p125
sg12
S'bm'
p126
sg14
S'done'
p127
sa(dp128
g2
S'cherryman'
p129
sg4
S'25-Oct'
p130
sg6
g7
sg8
S'3313'
p131
sg10
S'zaszou'
p132
sg12
S'RC'
p133
sg14
S'done'
p134
sa(dp135
g2
S'dmi'
p136
sg4
S'4-Nov'
p137
sg6
g7
sg8
S'3343'
p138
sg10
S'ava bialo'
p139
sg12
S'rc'
p140
sg14
S'done'
p141
sa(dp142
g2
S'dmi'
p143
sg4
S'30-Oct'
p144
sg6
g7
sg8
S'3332'
p145
sg10
S'cash-ltl'
p146
sg12
S'bm'
p147
sg14
S'done'
p148
sa(dp149
g2
S'dmi'
p150
sg4
S'28-Oct'
p151
sg6
g7
sg8
S'3323'
p152
sg10
S'rg'
p153
sg12
S'jm'
p154
sg14
S'done'
p155
sa(dp156
g2
S'dmi'
p157
sg4
S'28-Oct'
p158
sg6
g7
sg8
S'3327'
p159
sg10
S'Sater'
p160
sg12
S'RC'
p161
sg14
S'done'
p162
sa(dp163
g2
S'dmi'
p164
sg4
S'28-Oct'
p165
sg6
g7
sg8
S'3322'
p166
sg10
S'kaba'
p167
sg12
S'rc'
p168
sg14
S'done'
p169
sa(dp170
g2
S'dmi'
p171
sg4
S'25-Oct'
p172
sg6
g7
sg8
S'3318'
p173
sg10
S'allscripts'
p174
sg12
S'bm'
p175
sg14
S'done'
p176
sa(dp177
g2
S'friant'
p178
sg4
S'25-Oct'
p179
sg6
g7
sg8
S'3321'
p180
sg10
S'imortgage'
p181
sg12
S'ar'
p182
sg14
S'done'
p183
sa(dp184
g2
S'Friant'
p185
sg4
S'28-Oct'
p186
sg6
g7
sg8
S'3326'
p187
sg10
S'Summers'
p188
sg12
S'JW'
p189
sg14
S'done'
p190
sa(dp191
g2
S'friant'
p192
sg4
S'29-Oct'
p193
sg6
g7
sg8
S'3329'
p194
sg10
S'imortgage'
p195
sg12
S'ar'
p196
sg14
S'done'
p197
sa(dp198
g2
S'us'
p199
sg4
S'5-Nov'
p200
sg6
g7
sg8
S'3347'
p201
sg10
S'caron'
p202
sg12
S'jw'
p203
sg14
S'done'
p204
sa(dp205
g2
S'dmi'
p206
sg4
S'7-Nov'
p207
sg6
g7
sg8
S'3362'
p208
sg10
S'sabal'
p209
sg12
S'rc'
p210
sg14
S'done'
p211
sa(dp212
g2
S'dmi'
p213
sg4
S'7-Nov'
p214
sg6
g7
sg8
S'3358'
p215
sg10
S'pie'
p216
sg12
S'rc'
p217
sg14
S'done'
p218
sa(dp219
g2
S'dmi'
p220
sg4
S'17-Jan'
p221
sg6
g7
sg8
S'2936'
p222
sg10
S'sierra'
p223
sg12
S'ts'
p224
sg14
S'done'
p225
sa(dp226
g2
S'cherryman'
p227
sg4
S'26-Sep'
p228
sg6
g7
sg8
S'3286'
p229
sg10
S'argan'
p230
sg12
S'jw'
p231
sg14
S'done'
p232
sa(dp233
g2
S'cherryman'
p234
sg4
S'30-Sep'
p235
sg6
g7
sg8
S'3288'
p236
sg10
S'hyundi'
p237
sg12
S'RC'
p238
sg14
S'done'
p239
sa(dp240
g2
S'cherryman'
p241
sg4
S'1-Oct'
p242
sg6
g7
sg8
S'3290'
p243
sg10
S'reyes'
p244
sg12
S'jw'
p245
sg14
S'done'
p246
sa(dp247
g2
S'cherryman'
p248
sg4
S'4-Oct'
p249
sg6
S'ordered wrong item by mistake 3290'
p250
sg8
S'3297'
p251
sg10
S'reyes'
p252
sg12
S'jw'
p253
sg14
S'done'
p254
sa.