(lp0
(dp1
S'Company'
p2
S'friant'
p3
sS'Ordered'
p4
S'2-Jul'
p5
sS'Notes'
p6
S''
p7
sS'PO'
p8
S'3161'
p9
sS'Client'
p10
S'realseal-cash'
p11
sS'Rep'
p12
S'jw'
p13
sS'Completed'
p14
g7
sa(dp15
g2
S'dmi'
p16
sg4
S'22-Aug'
p17
sg6
g7
sg8
S'3239'
p18
sg10
S'lindsey'
p19
sg12
S'vict'
p20
sg14
g7
sa(dp21
g2
S'mayline'
p22
sg4
S'22-Aug'
p23
sg6
g7
sg8
S'3240'
p24
sg10
S'showroom'
p25
sg12
S'km'
p26
sg14
g7
sa(dp27
g2
S'dmi'
p28
sg4
S'26-Aug'
p29
sg6
g7
sg8
S'3242'
p30
sg10
S'showroom'
p31
sg12
S'denise'
p32
sg14
g7
sa(dp33
g2
S'us'
p34
sg4
S'29-Aug'
p35
sg6
g7
sg8
S'3248'
p36
sg10
S'tri county'
p37
sg12
S'jw'
p38
sg14
g7
sa(dp39
g2
S'brown'
p40
sg4
S'3-Sep'
p41
sg6
g7
sg8
S'3250'
p42
sg10
S'n/a'
p43
sg12
S'jm'
p44
sg14
g7
sa(dp45
g2
S'us'
p46
sg4
S'3-Sep'
p47
sg6
g7
sg8
S'3251'
p48
sg10
S'Kearny Ford'
p49
sg12
S'TS'
p50
sg14
g7
sa(dp51
g2
S'abm'
p52
sg4
S'5-Sep'
p53
sg6
g7
sg8
S'3255'
p54
sg10
S'showroom'
p55
sg12
S'mr'
p56
sg14
g7
sa(dp57
g2
S'us'
p58
sg4
S'11-Sep'
p59
sg6
g7
sg8
S'3259'
p60
sg10
S'voyetra'
p61
sg12
S'PJ'
p62
sg14
g7
sa(dp63
g2
S'unisource'
p64
sg4
S'11-Oct'
p65
sg6
g7
sg8
S'3304'
p66
sg10
S'innovative'
p67
sg12
S'jw'
p68
sg14
g7
sa(dp69
g2
S'dmi'
p70
sg4
S'17-Oct'
p71
sg6
g7
sg8
S'3309'
p72
sg10
S'advanced chemical'
p73
sg12
S'rc'
p74
sg14
g7
sa(dp75
g2
S'dmi'
p76
sg4
S'25-Oct'
p77
sg6
g7
sg8
S'3316'
p78
sg10
S'showroom'
p79
sg12
S'mr'
p80
sg14
g7
sa(dp81
g2
S'cherryman'
p82
sg4
S'25-Oct'
p83
sg6
g7
sg8
S'3317'
p84
sg10
S'showroom'
p85
sg12
S'mr'
p86
sg14
g7
sa(dp87
g2
S'dmi'
p88
sg4
S'25-Oct'
p89
sg6
g7
sg8
S'3319'
p90
sg10
S'imortgage'
p91
sg12
S'ar'
p92
sg14
g7
sa(dp93
g2
S'pacific coast'
p94
sg4
S'28-Oct'
p95
sg6
g7
sg8
S'3324'
p96
sg10
S'showroom'
p97
sg12
S'mr'
p98
sg14
g7
sa(dp99
g2
S'pacific coast'
p100
sg4
S'28-Oct'
p101
sg6
g7
sg8
S'3325'
p102
sg10
S'showroom'
p103
sg12
S'mr'
p104
sg14
g7
sa(dp105
g2
S'friant'
p106
sg4
S'29-Oct'
p107
sg6
g7
sg8
S'3328'
p108
sg10
S'communicus'
p109
sg12
S'JW'
p110
sg14
g7
sa(dp111
g2
S'boss'
p112
sg4
S'30-Oct'
p113
sg6
g7
sg8
S'3330'
p114
sg10
S'communicus'
p115
sg12
S'JW'
p116
sg14
S'paid for majority'
p117
sa(dp118
g2
S'friant'
p119
sg4
S'30-Oct'
p120
sg6
g7
sg8
S'3331'
p121
sg10
S'communicus'
p122
sg12
S'jw'
p123
sg14
g7
sa(dp124
g2
S'dmi'
p125
sg4
S'31-Oct'
p126
sg6
g7
sg8
S'3334'
p127
sg10
S'decarlos'
p128
sg12
S'rc'
p129
sg14
g7
sa(dp130
g2
S'dmi'
p131
sg4
S'1-Nov'
p132
sg6
g7
sg8
S'3338'
p133
sg10
S'kimberly'
p134
sg12
S'rc'
p135
sg14
g7
sa(dp136
g2
S'boss'
p137
sg4
S'1-Nov'
p138
sg6
g7
sg8
S'3339'
p139
sg10
S'kimberly'
p140
sg12
S'rc'
p141
sg14
g7
sa(dp142
g2
S'abm'
p143
sg4
S'1-Nov'
p144
sg6
g7
sg8
S'3340'
p145
sg10
S'argen'
p146
sg12
S'jw'
p147
sg14
S'paid 50%'
p148
sa(dp149
g2
S'cherryman'
p150
sg4
S'4-Nov'
p151
sg6
g7
sg8
S'3341'
p152
sg10
S'sd showroom'
p153
sg12
S'mr'
p154
sg14
g7
sa(dp155
g2
S'tecno'
p156
sg4
S'5-Nov'
p157
sg6
g7
sg8
S'3345'
p158
sg10
S'cha'
p159
sg12
S'bm'
p160
sg14
g7
sa(dp161
g2
S'friant'
p162
sg4
S'5-Nov'
p163
sg6
g7
sg8
S'3346'
p164
sg10
S'caron'
p165
sg12
S'jw'
p166
sg14
g7
sa(dp167
g2
S'boss'
p168
sg4
S'5-Nov'
p169
sg6
g7
sg8
S'3349'
p170
sg10
S'vindon'
p171
sg12
S'rc'
p172
sg14
g7
sa(dp173
g2
S'dmi'
p174
sg4
S'5-Nov'
p175
sg6
g7
sg8
S'3350'
p176
sg10
S'pravana'
p177
sg12
S'rc'
p178
sg14
g7
sa(dp179
g2
S'united desk'
p180
sg4
S'6-Nov'
p181
sg6
g7
sg8
S'3351'
p182
sg10
S'sd showroom'
p183
sg12
S'mr'
p184
sg14
g7
sa(dp185
g2
S'friant'
p186
sg4
S'6-Nov'
p187
sg6
g7
sg8
S'3352'
p188
sg10
S'sfs showroom'
p189
sg12
S'mr'
p190
sg14
g7
sa(dp191
g2
S'friant'
p192
sg4
S'6-Nov'
p193
sg6
g7
sg8
S'3353'
p194
sg10
S'sd showroom'
p195
sg12
S'mr'
p196
sg14
g7
sa(dp197
g2
S'friant'
p198
sg4
S'6-Nov'
p199
sg6
g7
sg8
S'3354'
p200
sg10
S'sd showroom'
p201
sg12
S'mr'
p202
sg14
g7
sa(dp203
g2
S'pacific coast'
p204
sg4
S'6-Nov'
p205
sg6
g7
sg8
S'3355'
p206
sg10
S'cash-elephant'
p207
sg12
S'jw'
p208
sg14
g7
sa(dp209
g2
S'friant'
p210
sg4
S'7-Nov'
p211
sg6
g7
sg8
S'3361'
p212
sg10
S'communicus'
p213
sg12
S'jw'
p214
sg14
g7
sa(dp215
g2
S'dmi'
p216
sg4
S'8-Nov'
p217
sg6
S'ordered per denise before signed/payment'
p218
sg8
S'3363'
p219
sg10
S'decarlos'
p220
sg12
S'rc'
p221
sg14
g7
sa(dp222
g2
S'boss'
p223
sg4
S'11/12'
p224
sg6
S'this is for the used chairs on the invoice per robert'
p225
sg8
S'3364'
p226
sg10
S'plymouth'
p227
sg12
S'bm'
p228
sg14
g7
sa(dp229
g2
S'dmi'
p230
sg4
S'11/12'
p231
sg6
g7
sg8
S'3365'
p232
sg10
S'usda'
p233
sg12
S'rc'
p234
sg14
g7
sa(dp235
g2
S'boss'
p236
sg4
S'11/13'
p237
sg6
g7
sg8
S'3366'
p238
sg10
S'lindsey'
p239
sg12
S'rc'
p240
sg14
g7
sa(dp241
g2
S'dmi'
p242
sg4
S'11/13'
p243
sg6
g7
sg8
S'3367'
p244
sg10
S'lindsey'
p245
sg12
S'rc'
p246
sg14
g7
sa(dp247
g2
S'cherryman'
p248
sg4
S'11/14'
p249
sg6
g7
sg8
S'3368'
p250
sg10
S'sd showroom'
p251
sg12
S'kevin'
p252
sg14
g7
sa(dp253
g2
S'office star'
p254
sg4
S'11/15'
p255
sg6
g7
sg8
S'3369'
p256
sg10
S'sd showroom'
p257
sg12
S'jw'
p258
sg14
g7
sa(dp259
g2
S'dmi'
p260
sg4
S'11/15'
p261
sg6
g7
sg8
S'3370'
p262
sg10
S'kdt'
p263
sg12
S'rc'
p264
sg14
g7
sa(dp265
g2
S'boss'
p266
sg4
S'11/15'
p267
sg6
g7
sg8
S'3371'
p268
sg10
S'kdt'
p269
sg12
S'rc'
p270
sg14
g7
sa(dp271
g2
S'us'
p272
sg4
S'11/15'
p273
sg6
g7
sg8
S'3372'
p274
sg10
S'kdt'
p275
sg12
S'rc'
p276
sg14
g7
sa(dp277
g2
S'boss'
p278
sg4
S'11/15'
p279
sg6
g7
sg8
S'3373'
p280
sg10
S'vance'
p281
sg12
S'bm'
p282
sg14
g7
sa(dp283
g2
S'cherryman'
p284
sg4
S'11/15'
p285
sg6
g7
sg8
S'3374'
p286
sg10
S'sd showroom'
p287
sg12
S'kevin'
p288
sg14
g7
sa(dp289
g2
S'dmi'
p290
sg4
S'11/15'
p291
sg6
g7
sg8
S'3375'
p292
sg10
S'decarlo'
p293
sg12
S'rc'
p294
sg14
g7
sa(dp295
g2
S'cherryman'
p296
sg4
S'11/18'
p297
sg6
g7
sg8
S'3376'
p298
sg10
S'sd showroom'
p299
sg12
S'mr'
p300
sg14
g7
sa(dp301
g2
S'tecno'
p302
sg4
S'11/18'
p303
sg6
g7
sg8
S'3377'
p304
sg10
S'will chang'
p305
sg12
S'rc'
p306
sg14
g7
sa(dp307
g2
S'pacific coast'
p308
sg4
S'11/18'
p309
sg6
g7
sg8
S'3378'
p310
sg10
S'more job elephant see 3355'
p311
sg12
S'jw'
p312
sg14
g7
sa(dp313
g2
S'cherryman'
p314
sg4
S'11/18'
p315
sg6
g7
sg8
S'3379'
p316
sg10
S'first choice'
p317
sg12
S'jw'
p318
sg14
g7
sa(dp319
g2
S'dmi'
p320
sg4
S'11/21'
p321
sg6
g7
sg8
S'3380'
p322
sg10
S'usda'
p323
sg12
S'rc'
p324
sg14
g7
sa(dp325
g2
S'dmi'
p326
sg4
S'11/21'
p327
sg6
g7
sg8
S'3381'
p328
sg10
S'customerstream'
p329
sg12
S'rc'
p330
sg14
g7
sa(dp331
g2
S'boss'
p332
sg4
S'11/26'
p333
sg6
g7
sg8
S'3382'
p334
sg10
S'starline'
p335
sg12
S'jm'
p336
sg14
g7
sa(dp337
g2
S'dmi'
p338
sg4
S'11/26'
p339
sg6
S'denise ordered with dummy po 4604'
p340
sg8
S'3383 -4604'
p341
sg10
S'starline'
p342
sg12
S'jm'
p343
sg14
g7
sa(dp344
g2
S'hammer'
p345
sg4
S'11/26'
p346
sg6
g7
sg8
S'3384'
p347
sg10
S'r.o.b.'
p348
sg12
S'bm'
p349
sg14
g7
sa(dp350
g2
S'office star'
p351
sg4
S'11/26'
p352
sg6
g7
sg8
S'3385'
p353
sg10
S'samples'
p354
sg12
S'bm'
p355
sg14
g7
sa(dp356
g2
S'boss'
p357
sg4
S'11/26'
p358
sg6
g7
sg8
S'3386'
p359
sg10
S'samples'
p360
sg12
S'bm'
p361
sg14
g7
sa(dp362
g2
S'ergo'
p363
sg4
S'11/26'
p364
sg6
g7
sg8
S'3387'
p365
sg10
S'samples'
p366
sg12
S'bm'
p367
sg14
g7
sa(dp368
g2
S'friant'
p369
sg4
S'11/27'
p370
sg6
g7
sg8
S'3388'
p371
sg10
S'sd showroom'
p372
sg12
S'mr'
p373
sg14
g7
sa(dp374
g2
S'friant'
p375
sg4
S'11/27'
p376
sg6
g7
sg8
S'3389'
p377
sg10
S'sfs showroom'
p378
sg12
S'mr'
p379
sg14
g7
sa(dp380
g2
S'friant'
p381
sg4
S'11/27'
p382
sg6
g7
sg8
S'3390'
p383
sg10
S'sd showroom'
p384
sg12
S'mr'
p385
sg14
g7
sa(dp386
g2
S'friant'
p387
sg4
S'11/27'
p388
sg6
g7
sg8
S'3391'
p389
sg10
S'sfs showroom'
p390
sg12
S'mr'
p391
sg14
g7
sa(dp392
g2
S'cherryman'
p393
sg4
S'11/27'
p394
sg6
g7
sg8
S'3392'
p395
sg10
S'sd showroom'
p396
sg12
S'mr'
p397
sg14
g7
sa(dp398
g2
S'pacific coast'
p399
sg4
S'11/27'
p400
sg6
g7
sg8
S'3393'
p401
sg10
S'sd showroom'
p402
sg12
S'mr'
p403
sg14
g7
sa(dp404
g2
S'cherryman'
p405
sg4
S'12/2'
p406
sg6
S'sold for 2798'
p407
sg8
S'3394'
p408
sg10
S'downey-cash'
p409
sg12
S'bm'
p410
sg14
g7
sa(dp411
g2
S'us'
p412
sg4
S'12/2'
p413
sg6
S'sold for 796'
p414
sg8
S'3395'
p415
sg10
S'downey-cash'
p416
sg12
S'bm'
p417
sg14
g7
sa(dp418
g2
S'boss'
p419
sg4
S'12/2'
p420
sg6
S'sold for 1600 see 3405'
p421
sg8
S'3396'
p422
sg10
S'downey-cash'
p423
sg12
S'bm'
p424
sg14
g7
sa(dp425
g2
S'pacific coast'
p426
sg4
S'12/3'
p427
sg6
g7
sg8
S'3397'
p428
sg10
S'shaw'
p429
sg12
S'bm'
p430
sg14
g7
sa(dp431
g2
S'boss'
p432
sg4
S'12/3'
p433
sg6
g7
sg8
S'3398'
p434
sg10
S'bird rock'
p435
sg12
S'abe'
p436
sg14
g7
sa(dp437
g2
S'cherryman'
p438
sg4
S'12/3'
p439
sg6
g7
sg8
S'3399'
p440
sg10
S'bird rock'
p441
sg12
S'abe'
p442
sg14
g7
sa(dp443
g2
S'cherryman'
p444
sg4
S'12/3'
p445
sg6
g7
sg8
S'3400'
p446
sg10
S'althea'
p447
sg12
S'jw'
p448
sg14
g7
sa(dp449
g2
S'friant'
p450
sg4
S'12/3'
p451
sg6
S'janine forgot to order with original'
p452
sg8
S'3401'
p453
sg10
S'caron&stanley'
p454
sg12
S'jw'
p455
sg14
g7
sa(dp456
g2
S'boss'
p457
sg4
S'12/4'
p458
sg6
g7
sg8
S'3402'
p459
sg10
S'showroom'
p460
sg12
S'da'
p461
sg14
g7
sa(dp462
g2
S'techno'
p463
sg4
S'12/4'
p464
sg6
g7
sg8
S'3403'
p465
sg10
S'cha'
p466
sg12
S'bm'
p467
sg14
g7
sa(dp468
g2
S'dmi'
p469
sg4
S'12/5'
p470
sg6
g7
sg8
S'3404'
p471
sg10
S'sd showroom'
p472
sg12
S'mr'
p473
sg14
g7
sa(dp474
g2
S'boss'
p475
sg4
S'12/4'
p476
sg6
S'see 3396'
p477
sg8
S'3405'
p478
sg10
S'downey-cash'
p479
sg12
S'bm'
p480
sg14
g7
sa(dp481
g2
S'dmi'
p482
sg4
S'12/5'
p483
sg6
g7
sg8
S'3406'
p484
sg10
S'sfs showroom '
p485
sg12
S'mr'
p486
sg14
g7
sa(dp487
g2
S'cherryman'
p488
sg4
S'12/5'
p489
sg6
g7
sg8
S'3407'
p490
sg10
S'first american'
p491
sg12
S'jw'
p492
sg14
g7
sa(dp493
g2
g7
sg4
g7
sg6
g7
sg8
S'3408'
p494
sg10
g7
sg12
g7
sg14
g7
sa(dp495
g2
g7
sg4
g7
sg6
g7
sg8
S'3409'
p496
sg10
g7
sg12
g7
sg14
g7
sa(dp497
g2
g7
sg4
g7
sg6
g7
sg8
S'3410'
p498
sg10
g7
sg12
g7
sg14
g7
sa.