(lp0
(dp1
S'Customer'
p2
S"Int'l Congress"
p3
sS'Rep'
p4
S'JW'
p5
sS'Amount'
p6
S'0'
p7
sS'Signed'
p8
S''
p9
sS'POs'
p10
g9
sS'DepinSF'
p11
g9
sS'SO'
p12
g9
sS'Inventory'
p13
g9
sS'Invoice'
p14
g9
sS'Last Billed'
p15
g9
sS'Date'
p16
g9
sS'Notes'
p17
S'credit on file'
p18
sS'Job Done'
p19
g9
sa(dp20
g2
S'Lotus Labels'
p21
sg4
S'RC'
p22
sg6
g7
sg8
g9
sg10
g9
sg11
g9
sg12
g9
sg13
g9
sg14
g9
sg15
g9
sg16
g9
sg17
S'they over paid; left credit'
p23
sg19
g9
sa(dp24
g2
S'Escobar'
p25
sg4
S'RC'
p26
sg6
g7
sg8
S'n'
p27
sg10
g27
sg11
g27
sg12
S'1295'
p28
sg13
g27
sg14
S'7491'
p29
sg15
S'11/8/2013'
p30
sg16
S'10/11/2012'
p31
sg17
S"e-mailed escobarmark after he ordered new furniture for his dads bday 5/7,5/20, 6/20,7/11, 8/7, he responded e-mailed back 8/8, 8/26, denise e-mailed them copy of check didn't cc me, I asked denise 10/17, billed 11/8"
p32
sg19
g9
sa(dp33
g2
S'Sierra Pacific'
p34
sg4
S'PJTS'
p35
sg6
g7
sg8
g27
sg10
g27
sg11
g27
sg12
S'1556'
p36
sg13
S'none'
p37
sg14
S'7969'
p38
sg15
g9
sg16
S'03/28/2013'
p39
sg17
S'Product shippin to SD 11/18'
p40
sg19
g9
sa(dp41
g2
S'Sunderland'
p42
sg4
S'PJ'
p43
sg6
g7
sg8
g27
sg10
S'n/a'
p44
sg11
S'n/a'
p45
sg12
S'1694'
p46
sg13
S'none'
p47
sg14
S'8012'
p48
sg15
S'8-Nov'
p49
sg16
S'04/12/2013'
p50
sg17
S'e-mailed pete for billing info 4/12, 4/25,5/20, got contact info billed 5/20,6/20, 7/11, 8/7, called got new e-mail add 8/26, 9/23, 10/17, 10/17, 11/8'
p51
sg19
g9
sa(dp52
g2
S'Bainbridge'
p53
sg4
S'PJTS'
p54
sg6
g7
sg8
g27
sg10
S'none'
p55
sg11
S'n/a'
p56
sg12
S'1705'
p57
sg13
S'none'
p58
sg14
S'7924'
p59
sg15
S'8-Nov'
p60
sg16
S'03/08/2013'
p61
sg17
S'billed 4/2, 4/25, 5/20,6/20, 7/11, 8/7, 8/26, 9/23, 10/17, weird response from natalie in ap\x85 replied to her 11/8'
p62
sg19
g9
sa(dp63
g2
S'Fresh Healthy Vending'
p64
sg4
S'JW'
p65
sg6
g7
sg8
g27
sg10
g27
sg11
S'done'
p66
sg12
S'1965'
p67
sg13
S'done'
p68
sg14
S'8478'
p69
sg15
S'8-Nov'
p70
sg16
S'10/01/2013'
p71
sg17
S"janine's calling 11/20"
p72
sg19
g9
sa(dp73
g2
S'Kearny Mesa Infinit'
p74
sg4
S'PJTS'
p75
sg6
g7
sg8
S'y'
p76
sg10
S'3217-8'
p77
sg11
S'done'
p78
sg12
S'2098'
p79
sg13
g27
sg14
S'8533'
p80
sg15
S'12/2'
p81
sg16
S'10/28/2013'
p82
sg17
S'billed 10/28, 11/8, 11/19, 12/2'
p83
sg19
g9
sa(dp84
g2
S'Alta Corp'
p85
sg4
S'RC'
p86
sg6
S'0 '
p87
sg8
g76
sg10
S'3222-3'
p88
sg11
g27
sg12
S'2110'
p89
sg13
g27
sg14
S'8354'
p90
sg15
S'8-Nov'
p91
sg16
S'08/15/2013'
p92
sg17
S'8/15,9/17, 10/17, 11/8'
p93
sg19
g9
sa(dp94
g2
S'Blastoff'
p95
sg4
S'JW'
p96
sg6
g7
sg8
g27
sg10
S'3241'
p97
sg11
S'done'
p98
sg12
S'2148'
p99
sg13
g27
sg14
S'8374'
p100
sg15
g9
sg16
S'08/23/2013'
p101
sg17
g9
sg19
g9
sa(dp102
g2
S'Innovative Lease'
p103
sg4
S'JW'
p104
sg6
g7
sg8
g27
sg10
g27
sg11
S'done'
p105
sg12
S'2163'
p106
sg13
g27
sg14
g9
sg15
g9
sg16
g9
sg17
S'janine said might not go through 10/17'
p107
sg19
g9
sa(dp108
g2
S'Marquee'
p109
sg4
S'MR'
p110
sg6
g7
sg8
g27
sg10
g27
sg11
S'done'
p111
sg12
S'2190'
p112
sg13
g27
sg14
S'8511'
p113
sg15
S'8-Nov'
p114
sg16
S'10/17/2013'
p115
sg17
S'billed 10/17, 11/8'
p116
sg19
g9
sa(dp117
g2
S'Architectural'
p118
sg4
S'RC'
p119
sg6
g7
sg8
g27
sg10
g9
sg11
S'done'
p120
sg12
S'2200'
p121
sg13
g27
sg14
g9
sg15
g9
sg16
g9
sg17
S'denise said no date yet 10/17'
p122
sg19
g9
sa(dp123
g2
S'CCY'
p124
sg4
S'TS'
p125
sg6
g7
sg8
g27
sg10
g27
sg11
g27
sg12
S'2216'
p126
sg13
g27
sg14
S'8445'
p127
sg15
S'8-Nov'
p128
sg16
S'09/18/2013'
p129
sg17
S'todd said make invoice she will pay asap 9/18, asked todd 10/17, todd said waiting for table parts from SFS they wil cut check when they get them 10/17, billed 11/8'
p130
sg19
g9
sa(dp131
g2
S'Jeff Miller'
p132
sg4
S'BM'
p133
sg6
g7
sg8
g76
sg10
S'done'
p134
sg11
g27
sg12
S'2223'
p135
sg13
g27
sg14
S'8488'
p136
sg15
S'8-Nov'
p137
sg16
S'10/14/2013'
p138
sg17
S'returned check 10/17, billed 11/8, brian e-mailed him giving him payment terms (3 payments)\x85 11/20'
p139
sg19
g9
sa(dp140
g2
S'Abex'
p141
sg4
S'BM'
p142
sg6
g7
sg8
g27
sg10
g27
sg11
S'done'
p143
sg12
S'2227'
p144
sg13
g27
sg14
S'8510'
p145
sg15
S'8-Nov'
p146
sg16
S'10/17/2013'
p147
sg17
S'brian said complete and guy is ignoring him 10/17, sent first billing, 11/8'
p148
sg19
g9
sa(dp149
g2
S'Hyund'
p150
sg4
S'RC'
p151
sg6
g7
sg8
g76
sg10
S'3288'
p152
sg11
g27
sg12
S'2240'
p153
sg13
g27
sg14
S'8482'
p154
sg15
S'8-Nov'
p155
sg16
S'10/02/2013'
p156
sg17
S'billed 10/2, 11/8'
p157
sg19
g9
sa(dp158
g2
S'Fresh Healthy Vending'
p159
sg4
S'JW'
p160
sg6
g7
sg8
g27
sg10
g27
sg11
g27
sg12
S'2246'
p161
sg13
g27
sg14
S'8476'
p162
sg15
S'8-Nov'
p163
sg16
S'10/01/2013'
p164
sg17
S"janine's calling 11/20"
p165
sg19
g9
sa(dp166
g2
S'Hyundai'
p167
sg4
S'RC'
p168
sg6
g7
sg8
g27
sg10
g27
sg11
g27
sg12
S'2250'
p169
sg13
g27
sg14
S'8483'
p170
sg15
S'8-Nov'
p171
sg16
S'10/02/2013'
p172
sg17
S'billed 10/2, 11/8'
p173
sg19
g9
sa(dp174
g2
S'Washington Office'
p175
sg4
S'JW'
p176
sg6
g7
sg8
g27
sg10
g27
sg11
S'done'
p177
sg12
S'2284'
p178
sg13
g27
sg14
g9
sg15
g9
sg16
g9
sg17
g9
sg19
g9
sa(dp179
g2
S'Communicus'
p180
sg4
S'JW'
p181
sg6
g7
sg8
g27
sg10
S'3328,30-31'
p182
sg11
S'done'
p183
sg12
S'2296'
p184
sg13
S'done'
p185
sg14
g9
sg15
g9
sg16
g9
sg17
g9
sg19
g9
sa(dp186
g2
S'Energy Systems'
p187
sg4
S'BM'
p188
sg6
g7
sg8
g27
sg10
g27
sg11
S'done'
p189
sg12
S'2306'
p190
sg13
g27
sg14
g9
sg15
g9
sg16
g9
sg17
g9
sg19
g9
sa(dp191
g2
S'Unisource'
p192
sg4
S'MR'
p193
sg6
g7
sg8
g76
sg10
g27
sg11
S'paid'
p194
sg12
S'2307'
p195
sg13
g27
sg14
S'8542'
p196
sg15
S'30-Oct'
p197
sg16
S'10/30/2013'
p198
sg17
g9
sg19
g9
sa(dp199
g2
S'Odyssey Staffing'
p200
sg4
S'RC'
p201
sg6
g7
sg8
g27
sg10
g27
sg11
g27
sg12
S'2317'
p202
sg13
g27
sg14
S'8554'
p203
sg15
g9
sg16
S'11/01/2013'
p204
sg17
S'sfs mailed check 11/1'
p205
sg19
g9
sa(dp206
g2
S'Argen'
p207
sg4
S'JW'
p208
sg6
g7
sg8
g27
sg10
S'3440'
p209
sg11
S'done'
p210
sg12
S'2319'
p211
sg13
g27
sg14
g9
sg15
g9
sg16
g9
sg17
g9
sg19
g9
sa(dp212
g2
S'Kimberly-clark'
p213
sg4
S'RC'
p214
sg6
g9
sg8
g76
sg10
S'3338-9'
p215
sg11
S'done-2'
p216
sg12
S'2320'
p217
sg13
g27
sg14
S'8556b'
p218
sg15
g9
sg16
g9
sg17
g9
sg19
g9
sa(dp219
g2
S'Caron and Stanley'
p220
sg4
S'JW'
p221
sg6
g7
sg8
g27
sg10
S'3346-7'
p222
sg11
S'done'
p223
sg12
S'2324'
p224
sg13
g27
sg14
g9
sg15
g9
sg16
g9
sg17
g9
sg19
g9
sa(dp225
g2
S'Carrington'
p226
sg4
S'BM'
p227
sg6
g7
sg8
g27
sg10
g27
sg11
g27
sg12
S'2326'
p228
sg13
S'done'
p229
sg14
S'8561'
p230
sg15
g9
sg16
S'11/05/2013'
p231
sg17
g9
sg19
S'11/11/2013'
p232
sa(dp233
g2
S'PRG'
p234
sg4
S'BM'
p235
sg6
g7
sg8
g27
sg10
S'3357'
p236
sg11
S'done'
p237
sg12
S'2327'
p238
sg13
g27
sg14
S'8585'
p239
sg15
g9
sg16
g9
sg17
g9
sg19
S'11/13/13'
p240
sa(dp241
g2
S'Cenveo'
p242
sg4
S'RCJM'
p243
sg6
g7
sg8
g27
sg10
g27
sg11
S'done'
p244
sg12
S'2331'
p245
sg13
S'none'
p246
sg14
g9
sg15
g9
sg16
g9
sg17
g9
sg19
g9
sa(dp247
g2
S'Kearny Mesa Infinity'
p248
sg4
S'PJTS'
p249
sg6
g7
sg8
g27
sg10
g27
sg11
g27
sg12
S'2338'
p250
sg13
g27
sg14
S'8571'
p251
sg15
S'12/2'
p252
sg16
S'11/07/2013'
p253
sg17
g9
sg19
g9
sa(dp254
g2
S'AV Air Pros'
p255
sg4
S'BM'
p256
sg6
g9
sg8
g76
sg10
g9
sg11
S'paid'
p257
sg12
S'2343'
p258
sg13
S'done'
p259
sg14
g9
sg15
g9
sg16
g9
sg17
g9
sg19
g9
sa(dp260
g2
S'Apex Advisors'
p261
sg4
S'RC'
p262
sg6
g9
sg8
g27
sg10
g27
sg11
S'done'
p263
sg12
S'2347'
p264
sg13
S'done'
p265
sg14
g9
sg15
g9
sg16
g9
sg17
g9
sg19
g9
sa(dp266
g2
S'Will Chang'
p267
sg4
S'RC'
p268
sg6
g7
sg8
g27
sg10
S'3377'
p269
sg11
S'done'
p270
sg12
S'2355'
p271
sg13
S'done'
p272
sg14
g9
sg15
g9
sg16
g9
sg17
g9
sg19
g9
sa(dp273
g2
S'Mainette'
p274
sg4
S'BM'
p275
sg6
g7
sg8
g27
sg10
g27
sg11
S'done'
p276
sg12
S'2360'
p277
sg13
S'done'
p278
sg14
g9
sg15
g9
sg16
g9
sg17
g9
sg19
g9
sa(dp279
g2
S'R.O.M.'
p280
sg4
S'BM'
p281
sg6
g9
sg8
g76
sg10
S'3384'
p282
sg11
S'paid'
p283
sg12
S'2361'
p284
sg13
g27
sg14
g9
sg15
g9
sg16
g9
sg17
g9
sg19
g9
sa(dp285
g2
S'CustomerStream'
p286
sg4
S'RC'
p287
sg6
g9
sg8
g27
sg10
S'3381'
p288
sg11
S'done'
p289
sg12
S'2362'
p290
sg13
S'done'
p291
sg14
g9
sg15
g9
sg16
g9
sg17
g9
sg19
g9
sa(dp292
g2
S'Starline'
p293
sg4
S'JM'
p294
sg6
g9
sg8
g27
sg10
S'3383'
p295
sg11
g9
sg12
S'2365'
p296
sg13
g27
sg14
g9
sg15
g9
sg16
g9
sg17
g9
sg19
g9
sa(dp297
g2
S'Kimberly-Clark'
p298
sg4
S'RC'
p299
sg6
g9
sg8
g76
sg10
g9
sg11
g9
sg12
S'2367'
p300
sg13
g27
sg14
g9
sg15
g9
sg16
g9
sg17
g9
sg19
g9
sa(dp301
g2
S'Bird Rock'
p302
sg4
S'AR'
p303
sg6
g9
sg8
g76
sg10
g9
sg11
g9
sg12
S'2371'
p304
sg13
g27
sg14
g9
sg15
g9
sg16
g9
sg17
g9
sg19
g9
sa(dp305
g2
S'Shaw & Blasi'
p306
sg4
S'BM'
p307
sg6
g7
sg8
g27
sg10
g27
sg11
S'paid'
p308
sg12
S'2373'
p309
sg13
S'done'
p310
sg14
g9
sg15
g9
sg16
g9
sg17
g9
sg19
g9
sa(dp311
g2
S'Starline'
p312
sg4
S'JM'
p313
sg6
g7
sg8
g27
sg10
g27
sg11
g27
sg12
S'2376'
p314
sg13
g27
sg14
S'8610'
p315
sg15
g9
sg16
g9
sg17
g9
sg19
g9
sa(dp316
g2
S'Unisource'
p317
sg4
S'MR'
p318
sg6
g9
sg8
g76
sg10
g27
sg11
g9
sg12
S'2377'
p319
sg13
g27
sg14
g9
sg15
g9
sg16
g9
sg17
g9
sg19
g9
sa(dp320
g2
S'Althea'
p321
sg4
S'JW'
p322
sg6
g9
sg8
g76
sg10
S'3400'
p323
sg11
g27
sg12
S'2378'
p324
sg13
g27
sg14
S'8612'
p325
sg15
g9
sg16
g9
sg17
g9
sg19
g9
sa(dp326
g2
S'CHA'
p327
sg4
S'BM'
p328
sg6
g9
sg8
g27
sg10
S'3402-3'
p329
sg11
g27
sg12
S'2379'
p330
sg13
g27
sg14
g9
sg15
g9
sg16
g9
sg17
S'sfs has deposit check'
p331
sg19
g9
sa(dp332
g2
S'First American'
p333
sg4
S'JW'
p334
sg6
g7
sg8
g27
sg10
S'3047'
p335
sg11
g27
sg12
S'2381'
p336
sg13
g27
sg14
S'8615'
p337
sg15
g9
sg16
g9
sg17
g9
sg19
g9
sa(dp338
g2
g9
sg4
g9
sg6
g9
sg8
g9
sg10
g9
sg11
g9
sg12
S'2382'
p339
sg13
g9
sg14
g9
sg15
g9
sg16
g9
sg17
g9
sg19
g9
sa(dp340
g2
g9
sg4
g9
sg6
g9
sg8
g9
sg10
g9
sg11
g9
sg12
S'2383'
p341
sg13
g9
sg14
g9
sg15
g9
sg16
g9
sg17
g9
sg19
g9
sa(dp342
g2
g9
sg4
g9
sg6
g9
sg8
g9
sg10
g9
sg11
g9
sg12
S'2384'
p343
sg13
g9
sg14
g9
sg15
g9
sg16
g9
sg17
g9
sg19
g9
sa(dp344
g2
g9
sg4
g9
sg6
g9
sg8
g9
sg10
g9
sg11
g9
sg12
S'2385'
p345
sg13
g9
sg14
g9
sg15
g9
sg16
g9
sg17
g9
sg19
g9
sa(dp346
g2
g9
sg4
g9
sg6
g9
sg8
g9
sg10
g9
sg11
g9
sg12
S'2386'
p347
sg13
g9
sg14
g9
sg15
g9
sg16
g9
sg17
g9
sg19
g9
sa(dp348
g2
g9
sg4
g9
sg6
g9
sg8
g9
sg10
g9
sg11
g9
sg12
S'2387'
p349
sg13
g9
sg14
g9
sg15
g9
sg16
g9
sg17
g9
sg19
g9
sa.