(lp0
(dp1
S'Customer'
p2
S"Int'l Congress"
p3
sS'Rep'
p4
S'JW'
p5
sS'Amount'
p6
S'-1693'
p7
sS'Signed'
p8
S''
p9
sS'POs'
p10
g9
sS'DepinSF'
p11
g9
sS'SO'
p12
g9
sS'Inventory'
p13
g9
sS'Invoice'
p14
g9
sS'Last Billed'
p15
g9
sS'Date'
p16
g9
sS'Notes'
p17
S'credit on file'
p18
sS'Job Done'
p19
g9
sa(dp20
g2
S'Lotus Labels'
p21
sg4
S'RC'
p22
sg6
S'-1150.2'
p23
sg8
g9
sg10
g9
sg11
g9
sg12
g9
sg13
g9
sg14
g9
sg15
g9
sg16
g9
sg17
S'they over paid; left credit'
p24
sg19
g9
sa(dp25
g2
S'Escobar'
p26
sg4
S'RC'
p27
sg6
S' $516.56 '
p28
sg8
S'n'
p29
sg10
g29
sg11
g29
sg12
S'1295'
p30
sg13
g29
sg14
S'7491'
p31
sg15
S'11/8/2013'
p32
sg16
S'10/11/2012'
p33
sg17
S"e-mailed escobarmark after he ordered new furniture for his dads bday 5/7,5/20, 6/20,7/11, 8/7, he responded e-mailed back 8/8, 8/26, denise e-mailed them copy of check didn't cc me, I asked denise 10/17, billed 11/8"
p34
sg19
g9
sa(dp35
g2
S'Sierra Pacific'
p36
sg4
S'PJTS'
p37
sg6
S' $21,514.83 '
p38
sg8
g29
sg10
g29
sg11
g29
sg12
S'1556'
p39
sg13
S'none'
p40
sg14
S'7969'
p41
sg15
g9
sg16
S'03/28/2013'
p42
sg17
S'Product shippin to SD 11/18'
p43
sg19
g9
sa(dp44
g2
S'Sunderland'
p45
sg4
S'PJ'
p46
sg6
S' $3,020.82 '
p47
sg8
g29
sg10
S'n/a'
p48
sg11
S'n/a'
p49
sg12
S'1694'
p50
sg13
S'none'
p51
sg14
S'8012'
p52
sg15
S'8-Nov'
p53
sg16
S'04/12/2013'
p54
sg17
S'e-mailed pete for billing info 4/12, 4/25,5/20, got contact info billed 5/20,6/20, 7/11, 8/7, called got new e-mail add 8/26, 9/23, 10/17, 10/17, 11/8'
p55
sg19
g9
sa(dp56
g2
S'Bainbridge'
p57
sg4
S'PJTS'
p58
sg6
S' $700.00 '
p59
sg8
g29
sg10
S'none'
p60
sg11
S'n/a'
p61
sg12
S'1705'
p62
sg13
S'none'
p63
sg14
S'7924'
p64
sg15
S'8-Nov'
p65
sg16
S'03/08/2013'
p66
sg17
S'billed 4/2, 4/25, 5/20,6/20, 7/11, 8/7, 8/26, 9/23, 10/17, weird response from natalie in ap\x85 replied to her 11/8'
p67
sg19
g9
sa(dp68
g2
S'Fresh Healthy Vending'
p69
sg4
S'JW'
p70
sg6
S' $2,000.00 '
p71
sg8
g29
sg10
g29
sg11
S'done'
p72
sg12
S'1965'
p73
sg13
S'done'
p74
sg14
S'8478'
p75
sg15
S'8-Nov'
p76
sg16
S'10/01/2013'
p77
sg17
S"janine's calling 11/20"
p78
sg19
g9
sa(dp79
g2
S'Kearny Mesa Infinit'
p80
sg4
S'PJTS'
p81
sg6
S'$32,388.23'
p82
sg8
S'y'
p83
sg10
S'3217-8'
p84
sg11
S'done'
p85
sg12
S'2098'
p86
sg13
g29
sg14
S'8533'
p87
sg15
S'12/2'
p88
sg16
S'10/28/2013'
p89
sg17
S'billed 10/28, 11/8, 11/19, 12/2'
p90
sg19
g9
sa(dp91
g2
S'Alta Corp'
p92
sg4
S'RC'
p93
sg6
S' $1,475.72 '
p94
sg8
g83
sg10
S'3222-3'
p95
sg11
g29
sg12
S'2110'
p96
sg13
g29
sg14
S'8354'
p97
sg15
S'8-Nov'
p98
sg16
S'08/15/2013'
p99
sg17
S'8/15,9/17, 10/17, 11/8'
p100
sg19
g9
sa(dp101
g2
S'Blastoff'
p102
sg4
S'JW'
p103
sg6
S' $1,985.88 '
p104
sg8
g29
sg10
S'3241'
p105
sg11
S'done'
p106
sg12
S'2148'
p107
sg13
g29
sg14
S'8374'
p108
sg15
g9
sg16
S'08/23/2013'
p109
sg17
g9
sg19
g9
sa(dp110
g2
S'Innovative Lease'
p111
sg4
S'JW'
p112
sg6
S' $(3,465.00)'
p113
sg8
g29
sg10
g29
sg11
S'done'
p114
sg12
S'2163'
p115
sg13
g29
sg14
g9
sg15
g9
sg16
g9
sg17
S'janine said might not go through 10/17'
p116
sg19
g9
sa(dp117
g2
S'Marquee'
p118
sg4
S'MR'
p119
sg6
S' $3,114.62 '
p120
sg8
g29
sg10
g29
sg11
S'done'
p121
sg12
S'2190'
p122
sg13
g29
sg14
S'8511'
p123
sg15
S'8-Nov'
p124
sg16
S'10/17/2013'
p125
sg17
S'billed 10/17, 11/8'
p126
sg19
g9
sa(dp127
g2
S'Architectural'
p128
sg4
S'RC'
p129
sg6
S' $(10,252.40)'
p130
sg8
g29
sg10
g9
sg11
S'done'
p131
sg12
S'2200'
p132
sg13
g29
sg14
g9
sg15
g9
sg16
g9
sg17
S'denise said no date yet 10/17'
p133
sg19
g9
sa(dp134
g2
S'CCY'
p135
sg4
S'TS'
p136
sg6
S' $1,271.20 '
p137
sg8
g29
sg10
g29
sg11
g29
sg12
S'2216'
p138
sg13
g29
sg14
S'8445'
p139
sg15
S'8-Nov'
p140
sg16
S'09/18/2013'
p141
sg17
S'todd said make invoice she will pay asap 9/18, asked todd 10/17, todd said waiting for table parts from SFS they wil cut check when they get them 10/17, billed 11/8'
p142
sg19
g9
sa(dp143
g2
S'Jeff Miller'
p144
sg4
S'BM'
p145
sg6
S' $993.00 '
p146
sg8
g83
sg10
S'done'
p147
sg11
g29
sg12
S'2223'
p148
sg13
g29
sg14
S'8488'
p149
sg15
S'8-Nov'
p150
sg16
S'10/14/2013'
p151
sg17
S'returned check 10/17, billed 11/8, brian e-mailed him giving him payment terms (3 payments)\x85 11/20'
p152
sg19
g9
sa(dp153
g2
S'Abex'
p154
sg4
S'BM'
p155
sg6
S' $1,154.00 '
p156
sg8
g29
sg10
g29
sg11
S'done'
p157
sg12
S'2227'
p158
sg13
g29
sg14
S'8510'
p159
sg15
S'8-Nov'
p160
sg16
S'10/17/2013'
p161
sg17
S'brian said complete and guy is ignoring him 10/17, sent first billing, 11/8'
p162
sg19
g9
sa(dp163
g2
S'Hyund'
p164
sg4
S'RC'
p165
sg6
S' $243.24 '
p166
sg8
g83
sg10
S'3288'
p167
sg11
g29
sg12
S'2240'
p168
sg13
g29
sg14
S'8482'
p169
sg15
S'8-Nov'
p170
sg16
S'10/02/2013'
p171
sg17
S'billed 10/2, 11/8'
p172
sg19
g9
sa(dp173
g2
S'Fresh Healthy Vending'
p174
sg4
S'JW'
p175
sg6
S' $420.00 '
p176
sg8
g29
sg10
g29
sg11
g29
sg12
S'2246'
p177
sg13
g29
sg14
S'8476'
p178
sg15
S'8-Nov'
p179
sg16
S'10/01/2013'
p180
sg17
S"janine's calling 11/20"
p181
sg19
g9
sa(dp182
g2
S'Hyundai'
p183
sg4
S'RC'
p184
sg6
S' $2,250.00 '
p185
sg8
g29
sg10
g29
sg11
g29
sg12
S'2250'
p186
sg13
g29
sg14
S'8483'
p187
sg15
S'8-Nov'
p188
sg16
S'10/02/2013'
p189
sg17
S'billed 10/2, 11/8'
p190
sg19
g9
sa(dp191
g2
S'Washington Office'
p192
sg4
S'JW'
p193
sg6
S' $(267.00)'
p194
sg8
g29
sg10
g29
sg11
S'done'
p195
sg12
S'2284'
p196
sg13
g29
sg14
g9
sg15
g9
sg16
g9
sg17
g9
sg19
g9
sa(dp197
g2
S'Communicus'
p198
sg4
S'JW'
p199
sg6
S' $(14,071.47)'
p200
sg8
g29
sg10
S'3328,30-31'
p201
sg11
S'done'
p202
sg12
S'2296'
p203
sg13
S'done'
p204
sg14
g9
sg15
g9
sg16
g9
sg17
g9
sg19
g9
sa(dp205
g2
S'Energy Systems'
p206
sg4
S'BM'
p207
sg6
S' $(3,076.65)'
p208
sg8
g29
sg10
g29
sg11
S'done'
p209
sg12
S'2306'
p210
sg13
g29
sg14
g9
sg15
g9
sg16
g9
sg17
g9
sg19
g9
sa(dp211
g2
S'Unisource'
p212
sg4
S'MR'
p213
sg6
S'-32923.5'
p214
sg8
g83
sg10
g29
sg11
S'paid'
p215
sg12
S'2307'
p216
sg13
g29
sg14
S'8542'
p217
sg15
S'30-Oct'
p218
sg16
S'10/30/2013'
p219
sg17
g9
sg19
g9
sa(dp220
g2
S'Odyssey Staffing'
p221
sg4
S'RC'
p222
sg6
S' $158.05 '
p223
sg8
g29
sg10
g29
sg11
g29
sg12
S'2317'
p224
sg13
g29
sg14
S'8554'
p225
sg15
g9
sg16
S'11/01/2013'
p226
sg17
S'sfs mailed check 11/1'
p227
sg19
g9
sa(dp228
g2
S'Argen'
p229
sg4
S'JW'
p230
sg6
S' $(847.65)'
p231
sg8
g29
sg10
S'3440'
p232
sg11
S'done'
p233
sg12
S'2319'
p234
sg13
g29
sg14
g9
sg15
g9
sg16
g9
sg17
g9
sg19
g9
sa(dp235
g2
S'Kimberly-clark'
p236
sg4
S'RC'
p237
sg6
g9
sg8
g83
sg10
S'3338-9'
p238
sg11
S'done-2'
p239
sg12
S'2320'
p240
sg13
g29
sg14
S'8556b'
p241
sg15
g9
sg16
g9
sg17
g9
sg19
g9
sa(dp242
g2
S'Caron and Stanley'
p243
sg4
S'JW'
p244
sg6
S' $(4,915.73)'
p245
sg8
g29
sg10
S'3346-7'
p246
sg11
S'done'
p247
sg12
S'2324'
p248
sg13
g29
sg14
g9
sg15
g9
sg16
g9
sg17
g9
sg19
g9
sa(dp249
g2
S'Carrington'
p250
sg4
S'BM'
p251
sg6
S' $392.40 '
p252
sg8
g29
sg10
g29
sg11
g29
sg12
S'2326'
p253
sg13
S'done'
p254
sg14
S'8561'
p255
sg15
g9
sg16
S'11/05/2013'
p256
sg17
g9
sg19
S'11/11/2013'
p257
sa(dp258
g2
S'PRG'
p259
sg4
S'BM'
p260
sg6
S'887.8'
p261
sg8
g29
sg10
S'3357'
p262
sg11
S'done'
p263
sg12
S'2327'
p264
sg13
g29
sg14
S'8585'
p265
sg15
g9
sg16
g9
sg17
g9
sg19
S'11/13/13'
p266
sa(dp267
g2
S'Cenveo'
p268
sg4
S'RCJM'
p269
sg6
S' $(11,821.05)'
p270
sg8
g29
sg10
g29
sg11
S'done'
p271
sg12
S'2331'
p272
sg13
S'none'
p273
sg14
g9
sg15
g9
sg16
g9
sg17
g9
sg19
g9
sa(dp274
g2
S'Kearny Mesa Infinity'
p275
sg4
S'PJTS'
p276
sg6
S' $1,465.35 '
p277
sg8
g29
sg10
g29
sg11
g29
sg12
S'2338'
p278
sg13
g29
sg14
S'8571'
p279
sg15
S'12/2'
p280
sg16
S'11/07/2013'
p281
sg17
g9
sg19
g9
sa(dp282
g2
S'AV Air Pros'
p283
sg4
S'BM'
p284
sg6
g9
sg8
g83
sg10
g9
sg11
S'paid'
p285
sg12
S'2343'
p286
sg13
S'done'
p287
sg14
g9
sg15
g9
sg16
g9
sg17
g9
sg19
g9
sa(dp288
g2
S'Apex Advisors'
p289
sg4
S'RC'
p290
sg6
g9
sg8
g29
sg10
g29
sg11
S'done'
p291
sg12
S'2347'
p292
sg13
S'done'
p293
sg14
g9
sg15
g9
sg16
g9
sg17
g9
sg19
g9
sa(dp294
g2
S'Will Chang'
p295
sg4
S'RC'
p296
sg6
S'-8625.47'
p297
sg8
g29
sg10
S'3377'
p298
sg11
S'done'
p299
sg12
S'2355'
p300
sg13
S'done'
p301
sg14
g9
sg15
g9
sg16
g9
sg17
g9
sg19
g9
sa(dp302
g2
S'Mainette'
p303
sg4
S'BM'
p304
sg6
S'-5608'
p305
sg8
g29
sg10
g29
sg11
S'done'
p306
sg12
S'2360'
p307
sg13
S'done'
p308
sg14
g9
sg15
g9
sg16
g9
sg17
g9
sg19
g9
sa(dp309
g2
S'R.O.M.'
p310
sg4
S'BM'
p311
sg6
g9
sg8
g83
sg10
S'3384'
p312
sg11
S'paid'
p313
sg12
S'2361'
p314
sg13
g29
sg14
g9
sg15
g9
sg16
g9
sg17
g9
sg19
g9
sa(dp315
g2
S'CustomerStream'
p316
sg4
S'RC'
p317
sg6
g9
sg8
g29
sg10
S'3381'
p318
sg11
S'done'
p319
sg12
S'2362'
p320
sg13
S'done'
p321
sg14
g9
sg15
g9
sg16
g9
sg17
g9
sg19
g9
sa(dp322
g2
S'Starline'
p323
sg4
S'JM'
p324
sg6
g9
sg8
g29
sg10
S'3383'
p325
sg11
g9
sg12
S'2365'
p326
sg13
g29
sg14
g9
sg15
g9
sg16
g9
sg17
g9
sg19
g9
sa(dp327
g2
S'Kimberly-Clark'
p328
sg4
S'RC'
p329
sg6
g9
sg8
g83
sg10
g9
sg11
g9
sg12
S'2367'
p330
sg13
g29
sg14
g9
sg15
g9
sg16
g9
sg17
g9
sg19
g9
sa(dp331
g2
S'Bird Rock'
p332
sg4
S'AR'
p333
sg6
g9
sg8
g83
sg10
g9
sg11
g9
sg12
S'2371'
p334
sg13
g29
sg14
g9
sg15
g9
sg16
g9
sg17
g9
sg19
g9
sa(dp335
g2
S'Shaw & Blasi'
p336
sg4
S'BM'
p337
sg6
S'-2324'
p338
sg8
g29
sg10
g29
sg11
S'paid'
p339
sg12
S'2373'
p340
sg13
S'done'
p341
sg14
g9
sg15
g9
sg16
g9
sg17
g9
sg19
g9
sa(dp342
g2
S'Starline'
p343
sg4
S'JM'
p344
sg6
S'paid'
p345
sg8
g29
sg10
g29
sg11
g29
sg12
S'2376'
p346
sg13
g29
sg14
S'8610'
p347
sg15
g9
sg16
g9
sg17
g9
sg19
g9
sa(dp348
g2
S'Unisource'
p349
sg4
S'MR'
p350
sg6
g9
sg8
g83
sg10
g29
sg11
g9
sg12
S'2377'
p351
sg13
g29
sg14
g9
sg15
g9
sg16
g9
sg17
g9
sg19
g9
sa(dp352
g2
S'Althea'
p353
sg4
S'JW'
p354
sg6
g9
sg8
g83
sg10
S'3400'
p355
sg11
g29
sg12
S'2378'
p356
sg13
g29
sg14
S'8612'
p357
sg15
g9
sg16
g9
sg17
g9
sg19
g9
sa(dp358
g2
S'CHA'
p359
sg4
S'BM'
p360
sg6
g9
sg8
g29
sg10
S'3402-3'
p361
sg11
g29
sg12
S'2379'
p362
sg13
g29
sg14
g9
sg15
g9
sg16
g9
sg17
S'sfs has deposit check'
p363
sg19
g9
sa(dp364
g2
S'First American'
p365
sg4
S'JW'
p366
sg6
S'paid'
p367
sg8
g29
sg10
S'3047'
p368
sg11
g29
sg12
S'2381'
p369
sg13
g29
sg14
S'8615'
p370
sg15
g9
sg16
g9
sg17
g9
sg19
g9
sa(dp371
g2
g9
sg4
g9
sg6
g9
sg8
g9
sg10
g9
sg11
g9
sg12
S'2382'
p372
sg13
g9
sg14
g9
sg15
g9
sg16
g9
sg17
g9
sg19
g9
sa(dp373
g2
g9
sg4
g9
sg6
g9
sg8
g9
sg10
g9
sg11
g9
sg12
S'2383'
p374
sg13
g9
sg14
g9
sg15
g9
sg16
g9
sg17
g9
sg19
g9
sa(dp375
g2
g9
sg4
g9
sg6
g9
sg8
g9
sg10
g9
sg11
g9
sg12
S'2384'
p376
sg13
g9
sg14
g9
sg15
g9
sg16
g9
sg17
g9
sg19
g9
sa(dp377
g2
g9
sg4
g9
sg6
g9
sg8
g9
sg10
g9
sg11
g9
sg12
S'2385'
p378
sg13
g9
sg14
g9
sg15
g9
sg16
g9
sg17
g9
sg19
g9
sa(dp379
g2
g9
sg4
g9
sg6
g9
sg8
g9
sg10
g9
sg11
g9
sg12
S'2386'
p380
sg13
g9
sg14
g9
sg15
g9
sg16
g9
sg17
g9
sg19
g9
sa.