(dp0
S'olive view'
p1
(lp2
S'9.00%'
p3
aS'Los Angeles'
p4
asS'woody'
p5
(lp6
S'7.50%'
p7
aS'Kern'
p8
asS'del mar heights'
p9
(lp10
S'8.00%'
p11
aS'San Luis Obispo(DMHT)'
p12
asS'redcrest'
p13
(lp14
S'7.50%'
p15
aS'Humboldt'
p16
asS'el macero'
p17
(lp18
S'7.50%'
p19
aS'Yolo'
p20
asS'madera'
p21
(lp22
S'8.00%'
p23
aS'Madera'
p24
asS'south laguna'
p25
(lp26
S'8.00%'
p27
aS'Orange'
p28
asS'geyserville'
p29
(lp30
S'8.25%'
p31
aS'Sonoma'
p32
asS'mountain center'
p33
(lp34
S'8.00%'
p35
aS'Riverside'
p36
asS'skyforest'
p37
(lp38
S'8.00%'
p39
aS'San Bernardino'
p40
asS'mission hills'
p41
(lp42
S'9.00%'
p43
aS'Los Angeles'
p44
asS'stanton'
p45
(lp46
S'8.00%'
p47
aS'Orange'
p48
asS'rescue'
p49
(lp50
S'7.50%'
p51
aS'El Dorado'
p52
asS'century city'
p53
(lp54
S'9.00%'
p55
aS'Los Angeles'
p56
asS'bryn mawr'
p57
(lp58
S'8.00%'
p59
aS'San Bernardino'
p60
asS'amador city'
p61
(lp62
S'8.00%'
p63
aS'Amador'
p64
asS'scotts valley'
p65
(lp66
S'8.25%'
p67
aS'Santa Cruz(SVGF)'
p68
asS'dairy farm'
p69
(lp70
S'7.63%'
p71
aS'Solano'
p72
asS'calimesa'
p73
(lp74
S'8.00%'
p75
aS'Riverside'
p76
asS'alpine'
p77
(lp78
S'8.00%'
p79
aS'San Diego'
p80
asS'rowland heights'
p81
(lp82
S'9.00%'
p83
aS'Los Angeles'
p84
asS'glencoe'
p85
(lp86
S'7.50%'
p87
aS'Calaveras'
p88
asS'surfside'
p89
(lp90
S'8.00%'
p91
aS'Orange'
p92
asS'mountain mesa'
p93
(lp94
S'7.50%'
p95
aS'Kern'
p96
asS'shafter'
p97
(lp98
S'7.50%'
p99
aS'Kern'
p100
asS'rancho mirage'
p101
(lp102
S'8.00%'
p103
aS'Riverside'
p104
asS'mono hot springs'
p105
(lp106
S'8.23%'
p107
aS'Fresno'
p108
asS'fairfax'
p109
(lp110
S'8.25%'
p111
aS'Marin'
p112
asS'north fork'
p113
(lp114
S'8.00%'
p115
aS'Madera'
p116
asS'presidio'
p117
(lp118
S'8.75%'
p119
aS'San Francisco'
p120
asS'chinese camp'
p121
(lp122
S'7.50%'
p123
aS'Tuolumne'
p124
asS'round mountain'
p125
(lp126
S'7.50%'
p127
aS'Shasta'
p128
asS'likely'
p129
(lp130
S'7.50%'
p131
aS'Modoc'
p132
asS'gorman'
p133
(lp134
S'9.00%'
p135
aS'Los Angeles'
p136
asS'angelus oaks'
p137
(lp138
S'8.00%'
p139
aS'San Bernardino'
p140
asS'dunnigan'
p141
(lp142
S'7.50%'
p143
aS'Yolo'
p144
asS'portuguese bend'
p145
(lp146
S'9.00%'
p147
aS'Los Angeles'
p148
asS'loch lomond'
p149
(lp150
S'7.50%'
p151
aS'Lake'
p152
asS'inglewood'
p153
(lp154
S'9.50%'
p155
aS'Los Angeles(IGWD)'
p156
asS'randsburg'
p157
(lp158
S'7.50%'
p159
aS'Kern'
p160
asS'san tomas'
p161
(lp162
S'8.50%'
p163
aS'Santa Clara'
p164
asS'keddie'
p165
(lp166
S'7.50%'
p167
aS'Plumas'
p168
asS'south whittier'
p169
(lp170
S'9.00%'
p171
aS'Los Angeles'
p172
asS'clinter'
p173
(lp174
S'8.23%'
p175
aS'Fresno'
p176
asS'lodi'
p177
(lp178
S'8.00%'
p179
aS'San Joaquin'
p180
asS'saticoy'
p181
(lp182
S'7.50%'
p183
aS'Ventura'
p184
asS'avery'
p185
(lp186
S'7.50%'
p187
aS'Calaveras'
p188
asS'sausalito'
p189
(lp190
S'8.25%'
p191
aS'Marin'
p192
asS'spreckels'
p193
(lp194
S'7.50%'
p195
aS'Monterey'
p196
asS'pope valley'
p197
(lp198
S'8.00%'
p199
aS'Napa'
p200
asS'seminole hot springs'
p201
(lp202
S'9.00%'
p203
aS'Los Angeles'
p204
asS'boron'
p205
(lp206
S'7.50%'
p207
aS'Kern'
p208
asS'chino'
p209
(lp210
S'8.00%'
p211
aS'San Bernardino'
p212
asS'cherry valley'
p213
(lp214
S'8.00%'
p215
aS'Riverside'
p216
asS'la selva beach'
p217
(lp218
S'8.25%'
p219
aS'Santa Cruz'
p220
asS'sherman oaks'
p221
(lp222
S'9.00%'
p223
aS'Los Angeles'
p224
asS'el sobrante'
p225
(lp226
S'8.50%'
p227
aS'Contra Costa'
p228
asS'scott bar'
p229
(lp230
S'7.50%'
p231
aS'Siskiyou'
p232
asS'brownsville'
p233
(lp234
S'7.50%'
p235
aS'Yuba'
p236
asS'exeter'
p237
(lp238
S'8.00%'
p239
aS'Tulare'
p240
asS'pacific house'
p241
(lp242
S'7.50%'
p243
aS'El Dorado'
p244
asS'whitewater'
p245
(lp246
S'8.00%'
p247
aS'Riverside'
p248
asS'inyokern'
p249
(lp250
S'7.50%'
p251
aS'Kern'
p252
asS'holtville'
p253
(lp254
S'8.00%'
p255
aS'Imperial'
p256
asS'desert center'
p257
(lp258
S'8.00%'
p259
aS'Riverside'
p260
asS'flintridge'
p261
(lp262
S'9.00%'
p263
aS'Los Angeles'
p264
asS'la jolla'
p265
(lp266
S'8.00%'
p267
aS'San Diego'
p268
asS'harbor city'
p269
(lp270
S'9.00%'
p271
aS'Los Angeles'
p272
asS'landscape'
p273
(lp274
S'9.00%'
p275
aS'Alameda'
p276
asS'glenhaven'
p277
(lp278
S'7.50%'
p279
aS'Lake'
p280
asS'live oak'
p281
(lp282
S'7.50%'
p283
aS'Sutter'
p284
asS'fort jones'
p285
(lp286
S'7.50%'
p287
aS'Siskiyou'
p288
asS'north hills'
p289
(lp290
S'9.00%'
p291
aS'Los Angeles'
p292
asS'manhattan beach'
p293
(lp294
S'9.00%'
p295
aS'Los Angeles'
p296
asS'al tahoe'
p297
(lp298
S'7.50%'
p299
aS'El Dorado'
p300
asS'holt'
p301
(lp302
S'8.00%'
p303
aS'San Joaquin'
p304
asS'robbins'
p305
(lp306
S'7.50%'
p307
aS'Sutter'
p308
asS'crockett'
p309
(lp310
S'8.50%'
p311
aS'Contra Costa'
p312
asS'woodacre'
p313
(lp314
S'8.25%'
p315
aS'Marin'
p316
asS'willowbrook'
p317
(lp318
S'9.00%'
p319
aS'Los Angeles'
p320
asS'mather'
p321
(lp322
S'8.00%'
p323
aS'Sacramento'
p324
asS'mi-wuk village'
p325
(lp326
S'7.50%'
p327
aS'Tuolumne'
p328
asS'bowman'
p329
(lp330
S'7.50%'
p331
aS'Placer'
p332
asS'elverta'
p333
(lp334
S'8.00%'
p335
aS'Sacramento'
p336
asS'curry village'
p337
(lp338
S'8.00%'
p339
aS'Mariposa'
p340
asS'grenada'
p341
(lp342
S'7.50%'
p343
aS'Siskiyou'
p344
asS'montclair'
p345
(lp346
S'8.25%'
p347
aS'San Bernardino(MTGR)'
p348
asS'carmel'
p349
(lp350
S'7.50%'
p351
aS'Monterey'
p352
asS'grimes'
p353
(lp354
S'7.50%'
p355
aS'Colusa'
p356
asS'hayfork'
p357
(lp358
S'7.50%'
p359
aS'Trinity'
p360
asS'indio'
p361
(lp362
S'8.00%'
p363
aS'Riverside'
p364
asS'yosemite lodge'
p365
(lp366
S'8.00%'
p367
aS'Mariposa'
p368
asS'sierra city'
p369
(lp370
S'7.50%'
p371
aS'Sierra'
p372
asS'sugarloaf'
p373
(lp374
S'8.00%'
p375
aS'San Bernardino'
p376
asS'amboy'
p377
(lp378
S'8.00%'
p379
aS'San Bernardino'
p380
asS'montebello'
p381
(lp382
S'9.00%'
p383
aS'Los Angeles'
p384
asS'graton'
p385
(lp386
S'8.25%'
p387
aS'Sonoma'
p388
asS'california valley'
p389
(lp390
S'7.50%'
p391
aS'San Luis Obispo'
p392
asS'ripon'
p393
(lp394
S'8.00%'
p395
aS'San Joaquin'
p396
asS'traver'
p397
(lp398
S'8.00%'
p399
aS'Tulare'
p400
asS'mount wilson'
p401
(lp402
S'9.00%'
p403
aS'Los Angeles'
p404
asS'eagle mountain'
p405
(lp406
S'8.00%'
p407
aS'Riverside'
p408
asS'sunol'
p409
(lp410
S'9.00%'
p411
aS'Alameda'
p412
asS'loomis'
p413
(lp414
S'7.50%'
p415
aS'Placer'
p416
asS'montague'
p417
(lp418
S'7.50%'
p419
aS'Siskiyou'
p420
asS'bella vista'
p421
(lp422
S'7.50%'
p423
aS'Shasta'
p424
asS'pumpkin center'
p425
(lp426
S'7.50%'
p427
aS'Kern'
p428
asS'adin'
p429
(lp430
S'7.50%'
p431
aS'Modoc'
p432
asS'tujunga'
p433
(lp434
S'9.00%'
p435
aS'Los Angeles'
p436
asS'tahoe valley'
p437
(lp438
S'7.50%'
p439
aS'El Dorado'
p440
asS'kinyon'
p441
(lp442
S'7.50%'
p443
aS'Siskiyou'
p444
asS'la vina'
p445
(lp446
S'9.00%'
p447
aS'Los Angeles'
p448
asS'chiriaco summit'
p449
(lp450
S'8.00%'
p451
aS'Riverside'
p452
asS'camp meeker'
p453
(lp454
S'8.25%'
p455
aS'Sonoma'
p456
asS'lindsay'
p457
(lp458
S'8.00%'
p459
aS'Tulare'
p460
asS'oceano'
p461
(lp462
S'7.50%'
p463
aS'San Luis Obispo'
p464
asS'thousand palms'
p465
(lp466
S'8.00%'
p467
aS'Riverside'
p468
asS'helena'
p469
(lp470
S'7.50%'
p471
aS'Trinity'
p472
asS'london'
p473
(lp474
S'8.00%'
p475
aS'Tulare'
p476
asS'pico rivera'
p477
(lp478
S'10.00%'
p479
aS'Los Angeles(PCRV)'
p480
asS'east rancho dominguez'
p481
(lp482
S'9.00%'
p483
aS'Los Angeles'
p484
asS'maricopa'
p485
(lp486
S'7.50%'
p487
aS'Kern'
p488
asS'gillman hot springs'
p489
(lp490
S'8.00%'
p491
aS'Riverside'
p492
asS'wilton'
p493
(lp494
S'8.00%'
p495
aS'Sacramento'
p496
asS'klamath'
p497
(lp498
S'7.50%'
p499
aS'Del Norte'
p500
asS'costa mesa'
p501
(lp502
S'8.00%'
p503
aS'Orange'
p504
asS'kenwood'
p505
(lp506
S'8.25%'
p507
aS'Sonoma'
p508
asS'spanish flat'
p509
(lp510
S'8.00%'
p511
aS'Napa'
p512
asS'colusa'
p513
(lp514
S'7.50%'
p515
aS'Colusa'
p516
asS'gualala'
p517
(lp518
S'7.50%'
p519
aS'Mendocino'
p520
asS'shively'
p521
(lp522
S'7.50%'
p523
aS'Humboldt'
p524
asS'lakeshore'
p525
(lp526
S'8.23%'
p527
aS'Fresno'
p528
asS'meadowbrook'
p529
(lp530
S'8.00%'
p531
aS'Riverside'
p532
asS'caruthers'
p533
(lp534
S'8.23%'
p535
aS'Fresno'
p536
asS'potrero'
p537
(lp538
S'8.00%'
p539
aS'San Diego'
p540
asS'laton'
p541
(lp542
S'8.23%'
p543
aS'Fresno'
p544
asS'olema'
p545
(lp546
S'8.25%'
p547
aS'Marin'
p548
asS'lagunitas'
p549
(lp550
S'8.25%'
p551
aS'Marin'
p552
asS'vidal'
p553
(lp554
S'8.00%'
p555
aS'San Bernardino'
p556
asS'antelope acres'
p557
(lp558
S'9.00%'
p559
aS'Los Angeles'
p560
asS'banta'
p561
(lp562
S'8.00%'
p563
aS'San Joaquin'
p564
asS'barton'
p565
(lp566
S'8.23%'
p567
aS'Fresno'
p568
asS'herald'
p569
(lp570
S'8.00%'
p571
aS'Sacramento'
p572
asS'hillcrest'
p573
(lp574
S'8.00%'
p575
aS'San Diego'
p576
asS'mcfarland'
p577
(lp578
S'7.50%'
p579
aS'Kern'
p580
asS'volcano'
p581
(lp582
S'8.00%'
p583
aS'Amador'
p584
asS'redding'
p585
(lp586
S'7.50%'
p587
aS'Shasta'
p588
asS'monolith'
p589
(lp590
S'7.50%'
p591
aS'Kern'
p592
asS'concord'
p593
(lp594
S'9.00%'
p595
aS'Contra Costa'
p596
asS'hobergs'
p597
(lp598
S'7.50%'
p599
aS'Lake'
p600
asS'lemoncove'
p601
(lp602
S'8.00%'
p603
aS'Tulare'
p604
asS'paynes creek'
p605
(lp606
S'7.50%'
p607
aS'Tehama'
p608
asS'golden hills'
p609
(lp610
S'7.50%'
p611
aS'Kern'
p612
asS'horse lake'
p613
(lp614
S'7.50%'
p615
aS'Lassen'
p616
asS'santa fe springs'
p617
(lp618
S'9.00%'
p619
aS'Los Angeles'
p620
asS'fellows'
p621
(lp622
S'7.50%'
p623
aS'Kern'
p624
asS'auberry'
p625
(lp626
S'8.23%'
p627
aS'Fresno'
p628
asS'los molinos'
p629
(lp630
S'7.50%'
p631
aS'Tehama'
p632
asS'le grand'
p633
(lp634
S'7.50%'
p635
aS'Merced'
p636
asS'banning'
p637
(lp638
S'8.00%'
p639
aS'Riverside'
p640
asS'independence'
p641
(lp642
S'8.00%'
p643
aS'Inyo'
p644
asS'coachella'
p645
(lp646
S'8.00%'
p647
aS'Riverside'
p648
asS'cabrillo'
p649
(lp650
S'9.00%'
p651
aS'Los Angeles'
p652
asS'huntington park'
p653
(lp654
S'9.00%'
p655
aS'Los Angeles'
p656
asS'valyermo'
p657
(lp658
S'9.00%'
p659
aS'Los Angeles'
p660
asS'westside'
p661
(lp662
S'7.63%'
p663
aS'Stanislaus'
p664
asS'seiad valley'
p665
(lp666
S'7.50%'
p667
aS'Siskiyou'
p668
asS'lewiston'
p669
(lp670
S'7.50%'
p671
aS'Trinity'
p672
asS'mt. aukum'
p673
(lp674
S'7.50%'
p675
aS'El Dorado'
p676
asS'gazelle'
p677
(lp678
S'7.50%'
p679
aS'Siskiyou'
p680
asS'ukiah'
p681
(lp682
S'8.00%'
p683
aS'Mendocino(UKGT)'
p684
asS'town center'
p685
(lp686
S'8.00%'
p687
aS'Tulare'
p688
asS'hood'
p689
(lp690
S'8.00%'
p691
aS'Sacramento'
p692
asS'bonita'
p693
(lp694
S'8.00%'
p695
aS'San Diego'
p696
asS'strawberry valley'
p697
(lp698
S'7.50%'
p699
aS'Yuba'
p700
asS'danville'
p701
(lp702
S'8.50%'
p703
aS'Contra Costa'
p704
asS'hollywood'
p705
(lp706
S'9.00%'
p707
aS'Los Angeles'
p708
asS'leggett'
p709
(lp710
S'7.50%'
p711
aS'Mendocino'
p712
asS'butte meadows'
p713
(lp714
S'7.50%'
p715
aS'Butte'
p716
asS'crowley lake'
p717
(lp718
S'7.50%'
p719
aS'Mono'
p720
asS'cloverdale'
p721
(lp722
S'8.25%'
p723
aS'Sonoma'
p724
asS'la quinta'
p725
(lp726
S'8.00%'
p727
aS'Riverside'
p728
asS'roseland'
p729
(lp730
S'8.25%'
p731
aS'Sonoma'
p732
asS'big bear city'
p733
(lp734
S'8.00%'
p735
aS'San Bernardino'
p736
asS'blue jay'
p737
(lp738
S'8.00%'
p739
aS'San Bernardino'
p740
asS'friant'
p741
(lp742
S'8.23%'
p743
aS'Fresno'
p744
asS'alondra'
p745
(lp746
S'9.00%'
p747
aS'Los Angeles'
p748
asS'seabright'
p749
(lp750
S'8.25%'
p751
aS'Santa Cruz'
p752
asS'san jacinto'
p753
(lp754
S'8.00%'
p755
aS'Riverside'
p756
asS'cohasset'
p757
(lp758
S'7.50%'
p759
aS'Butte'
p760
asS'princeton'
p761
(lp762
S'7.50%'
p763
aS'Colusa'
p764
asS'deleven'
p765
(lp766
S'7.50%'
p767
aS'Colusa'
p768
asS'seeley'
p769
(lp770
S'8.00%'
p771
aS'Imperial'
p772
asS'big oak flat'
p773
(lp774
S'7.50%'
p775
aS'Tuolumne'
p776
asS'biola'
p777
(lp778
S'8.23%'
p779
aS'Fresno'
p780
asS'san mateo'
p781
(lp782
S'8.75%'
p783
aS'San Mateo(SMTG)'
p784
asS'livermore'
p785
(lp786
S'9.00%'
p787
aS'Alameda'
p788
asS'imola'
p789
(lp790
S'8.00%'
p791
aS'Napa'
p792
asS'thornton'
p793
(lp794
S'8.00%'
p795
aS'San Joaquin'
p796
asS'san diego'
p797
(lp798
S'8.00%'
p799
aS'San Diego'
p800
asS'bermuda dunes'
p801
(lp802
S'8.00%'
p803
aS'Riverside'
p804
asS'copperopolis'
p805
(lp806
S'7.50%'
p807
aS'Calaveras'
p808
asS'johnsondale'
p809
(lp810
S'8.00%'
p811
aS'Tulare'
p812
asS'north gardena'
p813
(lp814
S'9.00%'
p815
aS'Los Angeles'
p816
asS'cummings'
p817
(lp818
S'7.50%'
p819
aS'Mendocino'
p820
asS'bradford'
p821
(lp822
S'9.00%'
p823
aS'Alameda'
p824
asS'brookdale'
p825
(lp826
S'8.25%'
p827
aS'Santa Cruz'
p828
asS'fawnskin'
p829
(lp830
S'8.00%'
p831
aS'San Bernardino'
p832
asS'butte city'
p833
(lp834
S'7.50%'
p835
aS'Glenn'
p836
asS'signal hill'
p837
(lp838
S'9.00%'
p839
aS'Los Angeles'
p840
asS'stirling city'
p841
(lp842
S'7.50%'
p843
aS'Butte'
p844
asS'enterprise'
p845
(lp846
S'7.50%'
p847
aS'Shasta'
p848
asS'corning'
p849
(lp850
S'7.50%'
p851
aS'Tehama'
p852
asS'fenner'
p853
(lp854
S'8.00%'
p855
aS'San Bernardino'
p856
asS'pleasanton'
p857
(lp858
S'9.00%'
p859
aS'Alameda'
p860
asS'muscoy'
p861
(lp862
S'8.00%'
p863
aS'San Bernardino'
p864
asS'orleans'
p865
(lp866
S'7.50%'
p867
aS'Humboldt'
p868
asS'calwa'
p869
(lp870
S'8.23%'
p871
aS'Fresno'
p872
asS'standish'
p873
(lp874
S'7.50%'
p875
aS'Lassen'
p876
asS'west covina'
p877
(lp878
S'9.00%'
p879
aS'Los Angeles'
p880
asS'bellflower'
p881
(lp882
S'9.00%'
p883
aS'Los Angeles'
p884
asS'encino'
p885
(lp886
S'9.00%'
p887
aS'Los Angeles'
p888
asS'fort dick'
p889
(lp890
S'7.50%'
p891
aS'Del Norte'
p892
asS'canyon country'
p893
(lp894
S'9.00%'
p895
aS'Los Angeles'
p896
asS'rancho cucamonga'
p897
(lp898
S'8.00%'
p899
aS'San Bernardino'
p900
asS'vinton'
p901
(lp902
S'7.50%'
p903
aS'Plumas'
p904
asS'agoura hills'
p905
(lp906
S'9.00%'
p907
aS'Los Angeles'
p908
asS'st. helena'
p909
(lp910
S'8.00%'
p911
aS'Napa'
p912
asS'penngrove'
p913
(lp914
S'8.25%'
p915
aS'Sonoma'
p916
asS'crestline'
p917
(lp918
S'8.00%'
p919
aS'San Bernardino'
p920
asS'pallett'
p921
(lp922
S'9.00%'
p923
aS'Los Angeles'
p924
asS'silver lake'
p925
(lp926
S'8.00%'
p927
aS'Amador'
p928
asS'dorris'
p929
(lp930
S'7.50%'
p931
aS'Siskiyou'
p932
asS'garberville'
p933
(lp934
S'7.50%'
p935
aS'Humboldt'
p936
asS'carmichael'
p937
(lp938
S'8.00%'
p939
aS'Sacramento'
p940
asS'dollar ranch'
p941
(lp942
S'8.50%'
p943
aS'Contra Costa'
p944
asS'new cuyama'
p945
(lp946
S'8.00%'
p947
aS'Santa Barbara'
p948
asS'tomales'
p949
(lp950
S'8.25%'
p951
aS'Marin'
p952
asS'lake alpine'
p953
(lp954
S'7.50%'
p955
aS'Alpine'
p956
asS'anza'
p957
(lp958
S'8.00%'
p959
aS'Riverside'
p960
asS'cardwell'
p961
(lp962
S'8.23%'
p963
aS'Fresno'
p964
asS'freshwater'
p965
(lp966
S'7.50%'
p967
aS'Humboldt'
p968
asS'french camp'
p969
(lp970
S'8.00%'
p971
aS'San Joaquin'
p972
asS'jacumba'
p973
(lp974
S'8.00%'
p975
aS'San Diego'
p976
asS'bel air estates'
p977
(lp978
S'9.00%'
p979
aS'Los Angeles'
p980
asS'lytle creek'
p981
(lp982
S'8.00%'
p983
aS'San Bernardino'
p984
asS'westley'
p985
(lp986
S'7.63%'
p987
aS'Stanislaus'
p988
asS'romoland'
p989
(lp990
S'8.00%'
p991
aS'Riverside'
p992
asS'santa ana'
p993
(lp994
S'8.00%'
p995
aS'Orange'
p996
asS'el nido'
p997
(lp998
S'7.50%'
p999
aS'Merced'
p1000
asS'lancaster'
p1001
(lp1002
S'9.00%'
p1003
aS'Los Angeles'
p1004
asS'moorpark'
p1005
(lp1006
S'7.50%'
p1007
aS'Ventura'
p1008
asS'mira loma'
p1009
(lp1010
S'8.00%'
p1011
aS'Riverside'
p1012
asS'sutter creek'
p1013
(lp1014
S'8.00%'
p1015
aS'Amador'
p1016
asS'norton a.f.b.'
p1017
(lp1018
S'8.25%'
p1019
aS'San Bernardino(NAFB)'
p1020
asS'pt. dume'
p1021
(lp1022
S'9.00%'
p1023
aS'Los Angeles'
p1024
asS'graeagle'
p1025
(lp1026
S'7.50%'
p1027
aS'Plumas'
p1028
asS'descanso'
p1029
(lp1030
S'8.00%'
p1031
aS'San Diego'
p1032
asS'isleton'
p1033
(lp1034
S'8.00%'
p1035
aS'Sacramento'
p1036
asS'orange cove'
p1037
(lp1038
S'8.23%'
p1039
aS'Fresno'
p1040
asS'point arena'
p1041
(lp1042
S'8.00%'
p1043
aS'Mendocino(PARS)'
p1044
asS'rimpau'
p1045
(lp1046
S'9.00%'
p1047
aS'Los Angeles'
p1048
asS'vernon'
p1049
(lp1050
S'9.00%'
p1051
aS'Los Angeles'
p1052
asS'west sacramento'
p1053
(lp1054
S'8.00%'
p1055
aS'Yolo(WSTU)'
p1056
asS'san geronimo'
p1057
(lp1058
S'8.25%'
p1059
aS'Marin'
p1060
asS'termo'
p1061
(lp1062
S'7.50%'
p1063
aS'Lassen'
p1064
asS'agua caliente'
p1065
(lp1066
S'8.25%'
p1067
aS'Sonoma'
p1068
asS'long barn'
p1069
(lp1070
S'7.50%'
p1071
aS'Tuolumne'
p1072
asS'calexico'
p1073
(lp1074
S'8.50%'
p1075
aS'Imperial(CXGF)'
p1076
asS'acampo'
p1077
(lp1078
S'8.00%'
p1079
aS'San Joaquin'
p1080
asS'balboa island'
p1081
(lp1082
S'8.00%'
p1083
aS'Orange'
p1084
asS'compton'
p1085
(lp1086
S'9.00%'
p1087
aS'Los Angeles'
p1088
asS'argus'
p1089
(lp1090
S'8.00%'
p1091
aS'San Bernardino'
p1092
asS'courtland'
p1093
(lp1094
S'8.00%'
p1095
aS'Sacramento'
p1096
asS'herlong'
p1097
(lp1098
S'7.50%'
p1099
aS'Lassen'
p1100
asS'death valley junction'
p1101
(lp1102
S'8.00%'
p1103
aS'Inyo'
p1104
asS'fillmore'
p1105
(lp1106
S'7.50%'
p1107
aS'Ventura'
p1108
asS'lower lake'
p1109
(lp1110
S'7.50%'
p1111
aS'Lake'
p1112
asS'cabazon'
p1113
(lp1114
S'8.00%'
p1115
aS'Riverside'
p1116
asS'toluca lake'
p1117
(lp1118
S'9.00%'
p1119
aS'Los Angeles'
p1120
asS'fort bragg'
p1121
(lp1122
S'8.00%'
p1123
aS'Mendocino(FBCS)'
p1124
asS'redwood valley'
p1125
(lp1126
S'7.50%'
p1127
aS'Mendocino'
p1128
asS'canyon'
p1129
(lp1130
S'8.50%'
p1131
aS'Contra Costa'
p1132
asS'wheatland'
p1133
(lp1134
S'8.00%'
p1135
aS'Yuba'
p1136
asS'san lucas'
p1137
(lp1138
S'7.50%'
p1139
aS'Monterey'
p1140
asS'fallen leaf'
p1141
(lp1142
S'7.50%'
p1143
aS'El Dorado'
p1144
asS'pearland'
p1145
(lp1146
S'9.00%'
p1147
aS'Los Angeles'
p1148
asS'avenal'
p1149
(lp1150
S'7.50%'
p1151
aS'Kings'
p1152
asS'la habra heights'
p1153
(lp1154
S'9.00%'
p1155
aS'Los Angeles'
p1156
asS'prunedale'
p1157
(lp1158
S'7.50%'
p1159
aS'Monterey'
p1160
asS'twain'
p1161
(lp1162
S'7.50%'
p1163
aS'Plumas'
p1164
asS'bear river lake'
p1165
(lp1166
S'8.00%'
p1167
aS'Amador'
p1168
asS'kelso'
p1169
(lp1170
S'8.00%'
p1171
aS'San Bernardino'
p1172
asS'rumsey'
p1173
(lp1174
S'7.50%'
p1175
aS'Yolo'
p1176
asS'westport'
p1177
(lp1178
S'7.50%'
p1179
aS'Mendocino'
p1180
asS'el toro'
p1181
(lp1182
S'8.00%'
p1183
aS'Orange'
p1184
asS'rio linda'
p1185
(lp1186
S'8.00%'
p1187
aS'Sacramento'
p1188
asS'junction city'
p1189
(lp1190
S'7.50%'
p1191
aS'Trinity'
p1192
asS'tuolumne'
p1193
(lp1194
S'7.50%'
p1195
aS'Tuolumne'
p1196
asS'la verne'
p1197
(lp1198
S'9.00%'
p1199
aS'Los Angeles'
p1200
asS'victorville'
p1201
(lp1202
S'8.00%'
p1203
aS'San Bernardino'
p1204
asS'onyx'
p1205
(lp1206
S'7.50%'
p1207
aS'Kern'
p1208
asS'downieville'
p1209
(lp1210
S'7.50%'
p1211
aS'Sierra'
p1212
asS'irvine'
p1213
(lp1214
S'8.00%'
p1215
aS'Orange'
p1216
asS'dillon beach'
p1217
(lp1218
S'8.25%'
p1219
aS'Marin'
p1220
asS'thousand oaks'
p1221
(lp1222
S'7.50%'
p1223
aS'Ventura'
p1224
asS'commerce'
p1225
(lp1226
S'9.00%'
p1227
aS'Los Angeles'
p1228
asS'sheridan'
p1229
(lp1230
S'7.50%'
p1231
aS'Placer'
p1232
asS'kyburz'
p1233
(lp1234
S'7.50%'
p1235
aS'El Dorado'
p1236
asS'fallon'
p1237
(lp1238
S'8.25%'
p1239
aS'Marin'
p1240
asS'running springs'
p1241
(lp1242
S'8.00%'
p1243
aS'San Bernardino'
p1244
asS'davenport'
p1245
(lp1246
S'8.25%'
p1247
aS'Santa Cruz'
p1248
asS'la honda'
p1249
(lp1250
S'8.50%'
p1251
aS'San Mateo'
p1252
asS'jamul'
p1253
(lp1254
S'8.00%'
p1255
aS'San Diego'
p1256
asS'kingsburg'
p1257
(lp1258
S'8.23%'
p1259
aS'Fresno'
p1260
asS'leona valley'
p1261
(lp1262
S'9.00%'
p1263
aS'Los Angeles'
p1264
asS'elmira'
p1265
(lp1266
S'7.63%'
p1267
aS'Solano'
p1268
asS'verdugo city'
p1269
(lp1270
S'9.00%'
p1271
aS'Los Angeles'
p1272
asS'del rosa'
p1273
(lp1274
S'8.00%'
p1275
aS'San Bernardino'
p1276
asS'wendel'
p1277
(lp1278
S'7.50%'
p1279
aS'Lassen'
p1280
asS'pulga'
p1281
(lp1282
S'7.50%'
p1283
aS'Butte'
p1284
asS'windsor'
p1285
(lp1286
S'8.25%'
p1287
aS'Sonoma'
p1288
asS'eldridge'
p1289
(lp1290
S'8.25%'
p1291
aS'Sonoma'
p1292
asS'harmony'
p1293
(lp1294
S'7.50%'
p1295
aS'San Luis Obispo'
p1296
asS'u.s.naval postgrad school'
p1297
(lp1298
S'7.50%'
p1299
aS'Monterey'
p1300
asS'woodleaf'
p1301
(lp1302
S'7.50%'
p1303
aS'Yuba'
p1304
asS'platina'
p1305
(lp1306
S'7.50%'
p1307
aS'Shasta'
p1308
asS'juniper'
p1309
(lp1310
S'7.50%'
p1311
aS'Lassen'
p1312
asS'sacramento'
p1313
(lp1314
S'8.00%'
p1315
aS'Sacramento'
p1316
asS'browns valley'
p1317
(lp1318
S'7.50%'
p1319
aS'Yuba'
p1320
asS'wishon'
p1321
(lp1322
S'8.00%'
p1323
aS'Madera'
p1324
asS'greenview'
p1325
(lp1326
S'7.50%'
p1327
aS'Siskiyou'
p1328
asS'villa park'
p1329
(lp1330
S'8.00%'
p1331
aS'Orange'
p1332
asS'campo'
p1333
(lp1334
S'8.00%'
p1335
aS'San Diego'
p1336
asS'morgan hill'
p1337
(lp1338
S'8.50%'
p1339
aS'Santa Clara'
p1340
asS'imperial beach'
p1341
(lp1342
S'8.00%'
p1343
aS'San Diego'
p1344
asS'norco'
p1345
(lp1346
S'8.00%'
p1347
aS'Riverside'
p1348
asS'riverdale'
p1349
(lp1350
S'8.23%'
p1351
aS'Fresno'
p1352
asS'los altos'
p1353
(lp1354
S'8.50%'
p1355
aS'Santa Clara'
p1356
asS'rolling hills estates'
p1357
(lp1358
S'9.00%'
p1359
aS'Los Angeles'
p1360
asS'idyllwild'
p1361
(lp1362
S'8.00%'
p1363
aS'Riverside'
p1364
asS'new idria'
p1365
(lp1366
S'7.50%'
p1367
aS'San Benito'
p1368
asS'pismo beach'
p1369
(lp1370
S'8.00%'
p1371
aS'San Luis Obispo(PSMO)'
p1372
asS'campbell'
p1373
(lp1374
S'8.75%'
p1375
aS'Santa Clara'
p1376
asS'fountain valley'
p1377
(lp1378
S'8.00%'
p1379
aS'Orange'
p1380
asS'elk'
p1381
(lp1382
S'7.50%'
p1383
aS'Mendocino'
p1384
asS'edwards a.f.b.'
p1385
(lp1386
S'7.50%'
p1387
aS'Kern'
p1388
asS'trona'
p1389
(lp1390
S'8.00%'
p1391
aS'San Bernardino'
p1392
asS'cornell'
p1393
(lp1394
S'9.00%'
p1395
aS'Los Angeles'
p1396
asS'pepperwood'
p1397
(lp1398
S'7.50%'
p1399
aS'Humboldt'
p1400
asS'grizzly flats'
p1401
(lp1402
S'7.50%'
p1403
aS'El Dorado'
p1404
asS'el centro'
p1405
(lp1406
S'8.00%'
p1407
aS'Imperial'
p1408
asS'torrance'
p1409
(lp1410
S'9.00%'
p1411
aS'Los Angeles'
p1412
asS'ladera heights'
p1413
(lp1414
S'9.00%'
p1415
aS'Los Angeles'
p1416
asS'oakdale'
p1417
(lp1418
S'7.63%'
p1419
aS'Stanislaus'
p1420
asS'san juan bautista'
p1421
(lp1422
S'8.25%'
p1423
aS'San Benito(SJBG)'
p1424
asS'birds landing'
p1425
(lp1426
S'7.63%'
p1427
aS'Solano'
p1428
asS'posey'
p1429
(lp1430
S'8.00%'
p1431
aS'Tulare'
p1432
asS'newcastle'
p1433
(lp1434
S'7.50%'
p1435
aS'Placer'
p1436
asS'rackerby'
p1437
(lp1438
S'7.50%'
p1439
aS'Yuba'
p1440
asS'vacaville'
p1441
(lp1442
S'7.63%'
p1443
aS'Solano'
p1444
asS'quartz hill'
p1445
(lp1446
S'9.00%'
p1447
aS'Los Angeles'
p1448
asS'chualar'
p1449
(lp1450
S'7.50%'
p1451
aS'Monterey'
p1452
asS'twin bridges'
p1453
(lp1454
S'7.50%'
p1455
aS'El Dorado'
p1456
asS'palermo'
p1457
(lp1458
S'7.50%'
p1459
aS'Butte'
p1460
asS'seaside'
p1461
(lp1462
S'8.50%'
p1463
aS'Monterey(SEAS)'
p1464
asS'project city'
p1465
(lp1466
S'7.50%'
p1467
aS'Shasta'
p1468
asS'alamo'
p1469
(lp1470
S'8.50%'
p1471
aS'Contra Costa'
p1472
asS'plainview'
p1473
(lp1474
S'8.00%'
p1475
aS'Tulare'
p1476
asS'willows'
p1477
(lp1478
S'7.50%'
p1479
aS'Glenn'
p1480
asS'sunset beach'
p1481
(lp1482
S'8.00%'
p1483
aS'Orange'
p1484
asS'leisure world'
p1485
(lp1486
S'8.00%'
p1487
aS'Orange'
p1488
asS'menlo park'
p1489
(lp1490
S'8.50%'
p1491
aS'San Mateo'
p1492
asS'san ysidro'
p1493
(lp1494
S'8.00%'
p1495
aS'San Diego'
p1496
asS'valley home'
p1497
(lp1498
S'7.63%'
p1499
aS'Stanislaus'
p1500
asS'hathaway pines'
p1501
(lp1502
S'7.50%'
p1503
aS'Calaveras'
p1504
asS'east nicolaus'
p1505
(lp1506
S'7.50%'
p1507
aS'Sutter'
p1508
asS'mission viejo'
p1509
(lp1510
S'8.00%'
p1511
aS'Orange'
p1512
asS'rail road flat'
p1513
(lp1514
S'7.50%'
p1515
aS'Calaveras'
p1516
asS'lenwood'
p1517
(lp1518
S'8.00%'
p1519
aS'San Bernardino'
p1520
asS'villa grande'
p1521
(lp1522
S'8.25%'
p1523
aS'Sonoma'
p1524
asS'potter valley'
p1525
(lp1526
S'7.50%'
p1527
aS'Mendocino'
p1528
asS'indian wells'
p1529
(lp1530
S'8.00%'
p1531
aS'Riverside'
p1532
asS'tecopa'
p1533
(lp1534
S'8.00%'
p1535
aS'Inyo'
p1536
asS'priest valley'
p1537
(lp1538
S'7.50%'
p1539
aS'Monterey'
p1540
asS'pilot hill'
p1541
(lp1542
S'7.50%'
p1543
aS'El Dorado'
p1544
asS'burbank'
p1545
(lp1546
S'9.00%'
p1547
aS'Los Angeles'
p1548
asS'north palm springs'
p1549
(lp1550
S'8.00%'
p1551
aS'Riverside'
p1552
asS'coronado'
p1553
(lp1554
S'8.00%'
p1555
aS'San Diego'
p1556
asS'summerland'
p1557
(lp1558
S'8.00%'
p1559
aS'Santa Barbara'
p1560
asS'warm springs'
p1561
(lp1562
S'9.00%'
p1563
aS'Alameda'
p1564
asS'olinda'
p1565
(lp1566
S'7.50%'
p1567
aS'Shasta'
p1568
asS'lost lake'
p1569
(lp1570
S'8.00%'
p1571
aS'Riverside'
p1572
asS'sawyers bar'
p1573
(lp1574
S'7.50%'
p1575
aS'Siskiyou'
p1576
asS'maxwell'
p1577
(lp1578
S'7.50%'
p1579
aS'Colusa'
p1580
asS'marshall'
p1581
(lp1582
S'8.25%'
p1583
aS'Marin'
p1584
asS'reedley'
p1585
(lp1586
S'8.73%'
p1587
aS'Fresno(RDPS)'
p1588
asS'playa del rey'
p1589
(lp1590
S'9.00%'
p1591
aS'Los Angeles'
p1592
asS'old station'
p1593
(lp1594
S'7.50%'
p1595
aS'Shasta'
p1596
asS'upland'
p1597
(lp1598
S'8.00%'
p1599
aS'San Bernardino'
p1600
asS'el cerrito'
p1601
(lp1602
S'9.50%'
p1603
aS'Contra Costa(ECSI)'
p1604
asS'cantil'
p1605
(lp1606
S'7.50%'
p1607
aS'Kern'
p1608
asS'anderson'
p1609
(lp1610
S'7.50%'
p1611
aS'Shasta'
p1612
asS'huntington lake'
p1613
(lp1614
S'8.23%'
p1615
aS'Fresno'
p1616
asS'bloomington'
p1617
(lp1618
S'8.00%'
p1619
aS'San Bernardino'
p1620
asS'palm springs'
p1621
(lp1622
S'8.00%'
p1623
aS'Riverside'
p1624
asS'atherton'
p1625
(lp1626
S'8.50%'
p1627
aS'San Mateo'
p1628
asS'northridge'
p1629
(lp1630
S'9.00%'
p1631
aS'Los Angeles'
p1632
asS'lake shastina'
p1633
(lp1634
S'7.50%'
p1635
aS'Siskiyou'
p1636
asS'needles'
p1637
(lp1638
S'8.00%'
p1639
aS'San Bernardino'
p1640
asS'san gregorio'
p1641
(lp1642
S'8.50%'
p1643
aS'San Mateo'
p1644
asS'weldon'
p1645
(lp1646
S'7.50%'
p1647
aS'Kern'
p1648
asS'loma mar'
p1649
(lp1650
S'8.50%'
p1651
aS'San Mateo'
p1652
asS'national city'
p1653
(lp1654
S'9.00%'
p1655
aS'San Diego(NCGT)'
p1656
asS'maywood'
p1657
(lp1658
S'9.00%'
p1659
aS'Los Angeles'
p1660
asS'gasquet'
p1661
(lp1662
S'7.50%'
p1663
aS'Del Norte'
p1664
asS'sun city'
p1665
(lp1666
S'8.00%'
p1667
aS'Riverside'
p1668
asS'american canyon'
p1669
(lp1670
S'8.00%'
p1671
aS'Napa'
p1672
asS'modesto'
p1673
(lp1674
S'7.63%'
p1675
aS'Stanislaus'
p1676
asS'plymouth'
p1677
(lp1678
S'8.00%'
p1679
aS'Amador'
p1680
asS'refugio beach'
p1681
(lp1682
S'8.00%'
p1683
aS'Santa Barbara'
p1684
asS'wheeler ridge'
p1685
(lp1686
S'7.50%'
p1687
aS'Kern'
p1688
asS'san marcos'
p1689
(lp1690
S'8.00%'
p1691
aS'San Diego'
p1692
asS'rialto'
p1693
(lp1694
S'8.00%'
p1695
aS'San Bernardino'
p1696
asS'highland park'
p1697
(lp1698
S'9.00%'
p1699
aS'Los Angeles'
p1700
asS'el monte'
p1701
(lp1702
S'9.50%'
p1703
aS'Los Angeles(EMGF)'
p1704
asS'rohnert park'
p1705
(lp1706
S'8.75%'
p1707
aS'Sonoma(RPGF)'
p1708
asS'dinuba'
p1709
(lp1710
S'8.75%'
p1711
aS'Tulare(DNBA)'
p1712
asS'pacific grove'
p1713
(lp1714
S'8.50%'
p1715
aS'Monterey(PGRV)'
p1716
asS'roseville'
p1717
(lp1718
S'7.50%'
p1719
aS'Placer'
p1720
asS'atwood'
p1721
(lp1722
S'8.00%'
p1723
aS'Orange'
p1724
asS'adelaida'
p1725
(lp1726
S'7.50%'
p1727
aS'San Luis Obispo'
p1728
asS'central valley'
p1729
(lp1730
S'7.50%'
p1731
aS'Shasta'
p1732
asS'ravenna'
p1733
(lp1734
S'9.00%'
p1735
aS'Los Angeles'
p1736
asS'san luis rey'
p1737
(lp1738
S'8.00%'
p1739
aS'San Diego'
p1740
asS'phelan'
p1741
(lp1742
S'8.00%'
p1743
aS'San Bernardino'
p1744
asS'sunnyside'
p1745
(lp1746
S'8.00%'
p1747
aS'San Diego'
p1748
asS'johnstonville'
p1749
(lp1750
S'7.50%'
p1751
aS'Lassen'
p1752
asS'naval hospital'
p1753
(lp1754
S'8.00%'
p1755
aS'San Diego'
p1756
asS'cerritos'
p1757
(lp1758
S'9.00%'
p1759
aS'Los Angeles'
p1760
asS'oban'
p1761
(lp1762
S'9.00%'
p1763
aS'Los Angeles'
p1764
asS'acton'
p1765
(lp1766
S'9.00%'
p1767
aS'Los Angeles'
p1768
asS'pasadena'
p1769
(lp1770
S'9.00%'
p1771
aS'Los Angeles'
p1772
asS'alleghany'
p1773
(lp1774
S'7.50%'
p1775
aS'Sierra'
p1776
asS'opal cliffs'
p1777
(lp1778
S'8.25%'
p1779
aS'Santa Cruz'
p1780
asS'tres pinos'
p1781
(lp1782
S'7.50%'
p1783
aS'San Benito'
p1784
asS'stonyford'
p1785
(lp1786
S'7.50%'
p1787
aS'Colusa'
p1788
asS'san jose'
p1789
(lp1790
S'8.50%'
p1791
aS'Santa Clara'
p1792
asS'covelo'
p1793
(lp1794
S'7.50%'
p1795
aS'Mendocino'
p1796
asS'cambria'
p1797
(lp1798
S'7.50%'
p1799
aS'San Luis Obispo'
p1800
asS'cecilville'
p1801
(lp1802
S'7.50%'
p1803
aS'Siskiyou'
p1804
asS'miranda'
p1805
(lp1806
S'7.50%'
p1807
aS'Humboldt'
p1808
asS'san juan capistrano'
p1809
(lp1810
S'8.00%'
p1811
aS'Orange'
p1812
asS'marcelina'
p1813
(lp1814
S'9.00%'
p1815
aS'Los Angeles'
p1816
asS'hamilton a.f.b.'
p1817
(lp1818
S'8.25%'
p1819
aS'Marin'
p1820
asS'topanga'
p1821
(lp1822
S'9.00%'
p1823
aS'Los Angeles'
p1824
asS'naval supply center'
p1825
(lp1826
S'9.00%'
p1827
aS'Alameda'
p1828
asS'rancho murieta'
p1829
(lp1830
S'8.00%'
p1831
aS'Sacramento'
p1832
asS'los alamos'
p1833
(lp1834
S'8.00%'
p1835
aS'Santa Barbara'
p1836
asS'norwalk'
p1837
(lp1838
S'9.00%'
p1839
aS'Los Angeles'
p1840
asS'venice'
p1841
(lp1842
S'9.00%'
p1843
aS'Los Angeles'
p1844
asS'santee'
p1845
(lp1846
S'8.00%'
p1847
aS'San Diego'
p1848
asS'omo ranch'
p1849
(lp1850
S'7.50%'
p1851
aS'El Dorado'
p1852
asS'gerber'
p1853
(lp1854
S'7.50%'
p1855
aS'Tehama'
p1856
asS'landers'
p1857
(lp1858
S'8.00%'
p1859
aS'San Bernardino'
p1860
asS'walnut park'
p1861
(lp1862
S'9.00%'
p1863
aS'Los Angeles'
p1864
asS'ranchita'
p1865
(lp1866
S'8.00%'
p1867
aS'San Diego'
p1868
asS'hume'
p1869
(lp1870
S'8.23%'
p1871
aS'Fresno'
p1872
asS'la porte'
p1873
(lp1874
S'7.50%'
p1875
aS'Plumas'
p1876
asS'san ardo'
p1877
(lp1878
S'7.50%'
p1879
aS'Monterey'
p1880
asS'del rey'
p1881
(lp1882
S'8.23%'
p1883
aS'Fresno'
p1884
asS'casmalia'
p1885
(lp1886
S'8.00%'
p1887
aS'Santa Barbara'
p1888
asS'lake forest'
p1889
(lp1890
S'8.00%'
p1891
aS'Orange'
p1892
asS'forest glen'
p1893
(lp1894
S'7.50%'
p1895
aS'Trinity'
p1896
asS'west los angeles'
p1897
(lp1898
S'9.00%'
p1899
aS'Los Angeles'
p1900
asS'sonora'
p1901
(lp1902
S'8.00%'
p1903
aS'Tuolumne(SPFW)'
p1904
asS'cool'
p1905
(lp1906
S'7.50%'
p1907
aS'El Dorado'
p1908
asS'shaver lake'
p1909
(lp1910
S'8.23%'
p1911
aS'Fresno'
p1912
asS'stewarts point'
p1913
(lp1914
S'8.25%'
p1915
aS'Sonoma'
p1916
asS'newport beach'
p1917
(lp1918
S'8.00%'
p1919
aS'Orange'
p1920
asS'westend'
p1921
(lp1922
S'8.00%'
p1923
aS'San Bernardino'
p1924
asS'tahoe paradise'
p1925
(lp1926
S'7.50%'
p1927
aS'El Dorado'
p1928
asS'santa clara'
p1929
(lp1930
S'8.50%'
p1931
aS'Santa Clara'
p1932
asS'vineburg'
p1933
(lp1934
S'8.25%'
p1935
aS'Sonoma'
p1936
asS'laguna woods'
p1937
(lp1938
S'8.00%'
p1939
aS'Orange'
p1940
asS'crannell'
p1941
(lp1942
S'7.50%'
p1943
aS'Humboldt'
p1944
asS'elizabeth lake'
p1945
(lp1946
S'9.00%'
p1947
aS'Los Angeles'
p1948
asS'whitethorn'
p1949
(lp1950
S'7.50%'
p1951
aS'Humboldt'
p1952
asS'agoura'
p1953
(lp1954
S'9.00%'
p1955
aS'Los Angeles'
p1956
asS'montara'
p1957
(lp1958
S'8.50%'
p1959
aS'San Mateo'
p1960
asS'lennox'
p1961
(lp1962
S'9.00%'
p1963
aS'Los Angeles'
p1964
asS'barstow'
p1965
(lp1966
S'8.00%'
p1967
aS'San Bernardino'
p1968
asS'walnut grove'
p1969
(lp1970
S'8.00%'
p1971
aS'Sacramento'
p1972
asS'pajaro'
p1973
(lp1974
S'7.50%'
p1975
aS'Monterey'
p1976
asS'kit carson'
p1977
(lp1978
S'8.00%'
p1979
aS'Amador'
p1980
asS'san ramon'
p1981
(lp1982
S'8.50%'
p1983
aS'Contra Costa'
p1984
asS'sherman island'
p1985
(lp1986
S'8.00%'
p1987
aS'Sacramento'
p1988
asS'balboa park'
p1989
(lp1990
S'8.00%'
p1991
aS'San Diego'
p1992
asS'diamond springs'
p1993
(lp1994
S'7.50%'
p1995
aS'El Dorado'
p1996
asS'azusa'
p1997
(lp1998
S'9.00%'
p1999
aS'Los Angeles'
p2000
asS'half moon bay'
p2001
(lp2002
S'8.50%'
p2003
aS'San Mateo'
p2004
asS'los gatos'
p2005
(lp2006
S'8.50%'
p2007
aS'Santa Clara'
p2008
asS'pinole'
p2009
(lp2010
S'9.00%'
p2011
aS'Contra Costa(PNLE)'
p2012
asS'hoopa'
p2013
(lp2014
S'7.50%'
p2015
aS'Humboldt'
p2016
asS'naval air station'
p2017
(lp2018
S'8.00%'
p2019
aS'San Diego'
p2020
asS'san anselmo'
p2021
(lp2022
S'8.25%'
p2023
aS'Marin'
p2024
asS'sky valley'
p2025
(lp2026
S'8.00%'
p2027
aS'Riverside'
p2028
asS'point reyes station'
p2029
(lp2030
S'8.25%'
p2031
aS'Marin'
p2032
asS'easton'
p2033
(lp2034
S'8.23%'
p2035
aS'Fresno'
p2036
asS'arcadia'
p2037
(lp2038
S'9.00%'
p2039
aS'Los Angeles'
p2040
asS'dublin'
p2041
(lp2042
S'9.00%'
p2043
aS'Alameda'
p2044
asS'alta'
p2045
(lp2046
S'7.50%'
p2047
aS'Placer'
p2048
asS'fairmount'
p2049
(lp2050
S'8.50%'
p2051
aS'Contra Costa'
p2052
asS'stockton'
p2053
(lp2054
S'8.25%'
p2055
aS'San Joaquin(SPFG)'
p2056
asS'angwin'
p2057
(lp2058
S'8.00%'
p2059
aS'Napa'
p2060
asS'durham'
p2061
(lp2062
S'7.50%'
p2063
aS'Butte'
p2064
asS'travis a.f.b.'
p2065
(lp2066
S'7.63%'
p2067
aS'Solano'
p2068
asS'trinidad'
p2069
(lp2070
S'8.25%'
p2071
aS'Humboldt(TRGF)'
p2072
asS'ballroad'
p2073
(lp2074
S'8.00%'
p2075
aS'Orange'
p2076
asS'camptonville'
p2077
(lp2078
S'7.50%'
p2079
aS'Yuba'
p2080
asS'calpella'
p2081
(lp2082
S'7.50%'
p2083
aS'Mendocino'
p2084
asS'cedarpines park'
p2085
(lp2086
S'8.00%'
p2087
aS'San Bernardino'
p2088
asS'fairfield'
p2089
(lp2090
S'7.63%'
p2091
aS'Solano'
p2092
asS'rosemead'
p2093
(lp2094
S'9.00%'
p2095
aS'Los Angeles'
p2096
asS'milford'
p2097
(lp2098
S'7.50%'
p2099
aS'Lassen'
p2100
asS'escalon'
p2101
(lp2102
S'8.00%'
p2103
aS'San Joaquin'
p2104
asS'ojai'
p2105
(lp2106
S'7.50%'
p2107
aS'Ventura'
p2108
asS'guatay'
p2109
(lp2110
S'8.00%'
p2111
aS'San Diego'
p2112
asS'placerville'
p2113
(lp2114
S'8.00%'
p2115
aS'El Dorado(PLPS)'
p2116
asS'moccasin'
p2117
(lp2118
S'7.50%'
p2119
aS'Tuolumne'
p2120
asS'millville'
p2121
(lp2122
S'7.50%'
p2123
aS'Shasta'
p2124
asS'tustin'
p2125
(lp2126
S'8.00%'
p2127
aS'Orange'
p2128
asS'rancho california'
p2129
(lp2130
S'8.00%'
p2131
aS'Riverside'
p2132
asS'hinkley'
p2133
(lp2134
S'8.00%'
p2135
aS'San Bernardino'
p2136
asS'fulton'
p2137
(lp2138
S'8.25%'
p2139
aS'Sonoma'
p2140
asS'locke'
p2141
(lp2142
S'8.00%'
p2143
aS'Sacramento'
p2144
asS'yuba city'
p2145
(lp2146
S'7.50%'
p2147
aS'Sutter'
p2148
asS'klamath river'
p2149
(lp2150
S'7.50%'
p2151
aS'Siskiyou'
p2152
asS'longview'
p2153
(lp2154
S'9.00%'
p2155
aS'Los Angeles'
p2156
asS'little norway'
p2157
(lp2158
S'7.50%'
p2159
aS'El Dorado'
p2160
asS'shasta'
p2161
(lp2162
S'7.50%'
p2163
aS'Shasta'
p2164
asS'rancho santa margarita'
p2165
(lp2166
S'8.00%'
p2167
aS'Orange'
p2168
asS'ordbend'
p2169
(lp2170
S'7.50%'
p2171
aS'Glenn'
p2172
asS'north shore'
p2173
(lp2174
S'8.00%'
p2175
aS'Riverside'
p2176
asS'paramount'
p2177
(lp2178
S'9.00%'
p2179
aS'Los Angeles'
p2180
asS'mount hamilton'
p2181
(lp2182
S'8.50%'
p2183
aS'Santa Clara'
p2184
asS'coleville'
p2185
(lp2186
S'7.50%'
p2187
aS'Mono'
p2188
asS'mendocino'
p2189
(lp2190
S'7.50%'
p2191
aS'Mendocino'
p2192
asS'dunsmuir'
p2193
(lp2194
S'7.50%'
p2195
aS'Siskiyou'
p2196
asS'boulder creek'
p2197
(lp2198
S'8.25%'
p2199
aS'Santa Cruz'
p2200
asS'myers flat'
p2201
(lp2202
S'7.50%'
p2203
aS'Humboldt'
p2204
asS'corona'
p2205
(lp2206
S'8.00%'
p2207
aS'Riverside'
p2208
asS'topanga park'
p2209
(lp2210
S'9.00%'
p2211
aS'Los Angeles'
p2212
asS'palm city'
p2213
(lp2214
S'8.00%'
p2215
aS'San Diego'
p2216
asS'green valley'
p2217
(lp2218
S'9.00%'
p2219
aS'Los Angeles'
p2220
asS'yreka'
p2221
(lp2222
S'7.50%'
p2223
aS'Siskiyou'
p2224
asS'beaumont'
p2225
(lp2226
S'8.00%'
p2227
aS'Riverside'
p2228
asS'san pablo'
p2229
(lp2230
S'8.50%'
p2231
aS'Contra Costa'
p2232
asS'cole'
p2233
(lp2234
S'9.00%'
p2235
aS'Los Angeles'
p2236
asS'colorado'
p2237
(lp2238
S'8.00%'
p2239
aS'Mariposa'
p2240
asS'cutten'
p2241
(lp2242
S'7.50%'
p2243
aS'Humboldt'
p2244
asS'wallace'
p2245
(lp2246
S'7.50%'
p2247
aS'Calaveras'
p2248
asS'cromberg'
p2249
(lp2250
S'7.50%'
p2251
aS'Plumas'
p2252
asS'smith river'
p2253
(lp2254
S'7.50%'
p2255
aS'Del Norte'
p2256
asS'oakley'
p2257
(lp2258
S'8.50%'
p2259
aS'Contra Costa'
p2260
asS'agua dulce'
p2261
(lp2262
S'9.00%'
p2263
aS'Los Angeles'
p2264
asS'mcarthur'
p2265
(lp2266
S'7.50%'
p2267
aS'Shasta'
p2268
asS'sea ranch'
p2269
(lp2270
S'8.25%'
p2271
aS'Sonoma'
p2272
asS'meridian'
p2273
(lp2274
S'7.50%'
p2275
aS'Sutter'
p2276
asS'chino hills'
p2277
(lp2278
S'8.00%'
p2279
aS'San Bernardino'
p2280
asS'pinetree'
p2281
(lp2282
S'9.00%'
p2283
aS'Los Angeles'
p2284
asS'larkfield'
p2285
(lp2286
S'8.25%'
p2287
aS'Sonoma'
p2288
asS'susanville'
p2289
(lp2290
S'7.50%'
p2291
aS'Lassen'
p2292
asS'pearblossom'
p2293
(lp2294
S'9.00%'
p2295
aS'Los Angeles'
p2296
asS'aptos'
p2297
(lp2298
S'8.25%'
p2299
aS'Santa Cruz'
p2300
asS'san rafael'
p2301
(lp2302
S'8.75%'
p2303
aS'Marin(RFEL)'
p2304
asS'calabasas'
p2305
(lp2306
S'9.00%'
p2307
aS'Los Angeles'
p2308
asS'cuyama'
p2309
(lp2310
S'8.00%'
p2311
aS'Santa Barbara'
p2312
asS'wawona'
p2313
(lp2314
S'8.00%'
p2315
aS'Mariposa'
p2316
asS'wilmington'
p2317
(lp2318
S'9.00%'
p2319
aS'Los Angeles'
p2320
asS'bear valley'
p2321
(lp2322
S'8.00%'
p2323
aS'Mariposa'
p2324
asS'bradley'
p2325
(lp2326
S'7.50%'
p2327
aS'Monterey'
p2328
asS'cressey'
p2329
(lp2330
S'7.50%'
p2331
aS'Merced'
p2332
asS'jackson'
p2333
(lp2334
S'8.00%'
p2335
aS'Amador'
p2336
asS'trowbridge'
p2337
(lp2338
S'7.50%'
p2339
aS'Sutter'
p2340
asS'calistoga'
p2341
(lp2342
S'8.00%'
p2343
aS'Napa'
p2344
asS'gonzales'
p2345
(lp2346
S'7.50%'
p2347
aS'Monterey'
p2348
asS'ladera ranch'
p2349
(lp2350
S'8.00%'
p2351
aS'Orange'
p2352
asS'cobb'
p2353
(lp2354
S'7.50%'
p2355
aS'Lake'
p2356
asS'tecate'
p2357
(lp2358
S'8.00%'
p2359
aS'San Diego'
p2360
asS'briceland'
p2361
(lp2362
S'7.50%'
p2363
aS'Humboldt'
p2364
asS'burlingame'
p2365
(lp2366
S'8.50%'
p2367
aS'San Mateo'
p2368
asS'brooks'
p2369
(lp2370
S'7.50%'
p2371
aS'Yolo'
p2372
asS'oasis'
p2373
(lp2374
S'8.00%'
p2375
aS'Riverside'
p2376
asS'moss landing'
p2377
(lp2378
S'7.50%'
p2379
aS'Monterey'
p2380
asS'marina'
p2381
(lp2382
S'8.50%'
p2383
aS'Monterey'
p2384
asS'whittier'
p2385
(lp2386
S'9.00%'
p2387
aS'Los Angeles'
p2388
asS'chilcoot'
p2389
(lp2390
S'7.50%'
p2391
aS'Plumas'
p2392
asS'watts'
p2393
(lp2394
S'9.00%'
p2395
aS'Los Angeles'
p2396
asS'government island'
p2397
(lp2398
S'9.00%'
p2399
aS'Alameda'
p2400
asS'laguna beach'
p2401
(lp2402
S'8.00%'
p2403
aS'Orange'
p2404
asS'kernville'
p2405
(lp2406
S'7.50%'
p2407
aS'Kern'
p2408
asS'cedar glen'
p2409
(lp2410
S'8.00%'
p2411
aS'San Bernardino'
p2412
asS'livingston'
p2413
(lp2414
S'7.50%'
p2415
aS'Merced'
p2416
asS'fort seward'
p2417
(lp2418
S'7.50%'
p2419
aS'Humboldt'
p2420
asS'van nuys'
p2421
(lp2422
S'9.00%'
p2423
aS'Los Angeles'
p2424
asS'hydesville'
p2425
(lp2426
S'7.50%'
p2427
aS'Humboldt'
p2428
asS'mckittrick'
p2429
(lp2430
S'7.50%'
p2431
aS'Kern'
p2432
asS'ono'
p2433
(lp2434
S'7.50%'
p2435
aS'Shasta'
p2436
asS'ocotillo'
p2437
(lp2438
S'8.00%'
p2439
aS'Imperial'
p2440
asS'south shore'
p2441
(lp2442
S'9.00%'
p2443
aS'Alameda'
p2444
asS'westlake'
p2445
(lp2446
S'9.00%'
p2447
aS'Los Angeles'
p2448
asS'niland'
p2449
(lp2450
S'8.00%'
p2451
aS'Imperial'
p2452
asS'bodega bay'
p2453
(lp2454
S'8.25%'
p2455
aS'Sonoma'
p2456
asS'calpine'
p2457
(lp2458
S'7.50%'
p2459
aS'Sierra'
p2460
asS'hat creek'
p2461
(lp2462
S'7.50%'
p2463
aS'Shasta'
p2464
asS'sunland'
p2465
(lp2466
S'9.00%'
p2467
aS'Los Angeles'
p2468
asS'boulevard'
p2469
(lp2470
S'8.00%'
p2471
aS'San Diego'
p2472
asS'carson'
p2473
(lp2474
S'9.00%'
p2475
aS'Los Angeles'
p2476
asS'guadalupe'
p2477
(lp2478
S'8.00%'
p2479
aS'Santa Barbara'
p2480
asS'huntington beach'
p2481
(lp2482
S'8.00%'
p2483
aS'Orange'
p2484
asS'kagel canyon'
p2485
(lp2486
S'9.00%'
p2487
aS'Los Angeles'
p2488
asS'williams'
p2489
(lp2490
S'8.00%'
p2491
aS'Colusa(WLMS)'
p2492
asS'tulelake'
p2493
(lp2494
S'7.50%'
p2495
aS'Siskiyou'
p2496
asS'sebastopol'
p2497
(lp2498
S'8.50%'
p2499
aS'Sonoma(SEGR)'
p2500
asS'miracle hot springs'
p2501
(lp2502
S'7.50%'
p2503
aS'Kern'
p2504
asS'elk grove'
p2505
(lp2506
S'8.00%'
p2507
aS'Sacramento'
p2508
asS'newberry'
p2509
(lp2510
S'8.00%'
p2511
aS'San Bernardino'
p2512
asS'loma rica'
p2513
(lp2514
S'7.50%'
p2515
aS'Yuba'
p2516
asS'canoga annex'
p2517
(lp2518
S'9.00%'
p2519
aS'Los Angeles'
p2520
asS'sylmar'
p2521
(lp2522
S'9.00%'
p2523
aS'Los Angeles'
p2524
asS'greenwood'
p2525
(lp2526
S'7.50%'
p2527
aS'El Dorado'
p2528
asS'barrington'
p2529
(lp2530
S'9.00%'
p2531
aS'Los Angeles'
p2532
asS'ventura'
p2533
(lp2534
S'7.50%'
p2535
aS'Ventura'
p2536
asS'el modena'
p2537
(lp2538
S'8.00%'
p2539
aS'Orange'
p2540
asS'lugo'
p2541
(lp2542
S'9.00%'
p2543
aS'Los Angeles'
p2544
asS'mariner'
p2545
(lp2546
S'8.00%'
p2547
aS'Orange'
p2548
asS'view park'
p2549
(lp2550
S'9.00%'
p2551
aS'Los Angeles'
p2552
asS'oildale'
p2553
(lp2554
S'7.50%'
p2555
aS'Kern'
p2556
asS'la cresta village'
p2557
(lp2558
S'7.50%'
p2559
aS'Kern'
p2560
asS'san marino'
p2561
(lp2562
S'9.00%'
p2563
aS'Los Angeles'
p2564
asS'baldwin park'
p2565
(lp2566
S'9.00%'
p2567
aS'Los Angeles'
p2568
asS'castaic'
p2569
(lp2570
S'9.00%'
p2571
aS'Los Angeles'
p2572
asS'casitas springs'
p2573
(lp2574
S'7.50%'
p2575
aS'Ventura'
p2576
asS'tuolumne meadows'
p2577
(lp2578
S'8.00%'
p2579
aS'Mariposa'
p2580
asS'arroyo grande'
p2581
(lp2582
S'8.00%'
p2583
aS'San Luis Obispo(ARGD)'
p2584
asS'orland'
p2585
(lp2586
S'7.50%'
p2587
aS'Glenn'
p2588
asS'tierra del sol'
p2589
(lp2590
S'8.00%'
p2591
aS'San Diego'
p2592
asS'middletown'
p2593
(lp2594
S'7.50%'
p2595
aS'Lake'
p2596
asS'arleta'
p2597
(lp2598
S'9.00%'
p2599
aS'Los Angeles'
p2600
asS'pioneertown'
p2601
(lp2602
S'8.00%'
p2603
aS'San Bernardino'
p2604
asS'bailey'
p2605
(lp2606
S'9.00%'
p2607
aS'Los Angeles'
p2608
asS'trabuco canyon'
p2609
(lp2610
S'8.00%'
p2611
aS'Orange'
p2612
asS'spring valley'
p2613
(lp2614
S'8.00%'
p2615
aS'San Diego'
p2616
asS'mill creek'
p2617
(lp2618
S'7.50%'
p2619
aS'Tehama'
p2620
asS'hughson'
p2621
(lp2622
S'7.63%'
p2623
aS'Stanislaus'
p2624
asS'santa nella'
p2625
(lp2626
S'7.50%'
p2627
aS'Merced'
p2628
asS'yermo'
p2629
(lp2630
S'8.00%'
p2631
aS'San Bernardino'
p2632
asS'mendota'
p2633
(lp2634
S'8.23%'
p2635
aS'Fresno'
p2636
asS'forest knolls'
p2637
(lp2638
S'8.25%'
p2639
aS'Marin'
p2640
asS'marysville'
p2641
(lp2642
S'7.50%'
p2643
aS'Yuba'
p2644
asS'tracy'
p2645
(lp2646
S'8.50%'
p2647
aS'San Joaquin'
p2648
asS'winters'
p2649
(lp2650
S'7.50%'
p2651
aS'Yolo'
p2652
asS'altadena'
p2653
(lp2654
S'9.00%'
p2655
aS'Los Angeles'
p2656
asS'hilmar'
p2657
(lp2658
S'7.50%'
p2659
aS'Merced'
p2660
asS'tehachapi'
p2661
(lp2662
S'7.50%'
p2663
aS'Kern'
p2664
asS'occidental'
p2665
(lp2666
S'8.25%'
p2667
aS'Sonoma'
p2668
asS'los alamitos'
p2669
(lp2670
S'8.00%'
p2671
aS'Orange'
p2672
asS'discovery bay'
p2673
(lp2674
S'8.50%'
p2675
aS'Contra Costa'
p2676
asS'laws'
p2677
(lp2678
S'8.00%'
p2679
aS'Inyo'
p2680
asS'mad river'
p2681
(lp2682
S'7.50%'
p2683
aS'Trinity'
p2684
asS'madison'
p2685
(lp2686
S'7.50%'
p2687
aS'Yolo'
p2688
asS'rohnerville'
p2689
(lp2690
S'7.50%'
p2691
aS'Humboldt'
p2692
asS'salida'
p2693
(lp2694
S'7.63%'
p2695
aS'Stanislaus'
p2696
asS'lotus'
p2697
(lp2698
S'7.50%'
p2699
aS'El Dorado'
p2700
asS'ivanhoe'
p2701
(lp2702
S'8.00%'
p2703
aS'Tulare'
p2704
asS'monta vista'
p2705
(lp2706
S'8.50%'
p2707
aS'Santa Clara'
p2708
asS'hope valley'
p2709
(lp2710
S'7.50%'
p2711
aS'Alpine'
p2712
asS'san carlos'
p2713
(lp2714
S'8.50%'
p2715
aS'San Mateo'
p2716
asS'moneta'
p2717
(lp2718
S'9.00%'
p2719
aS'Los Angeles'
p2720
asS'betteravia'
p2721
(lp2722
S'8.00%'
p2723
aS'Santa Barbara'
p2724
asS'madeline'
p2725
(lp2726
S'7.50%'
p2727
aS'Lassen'
p2728
asS'hesperia'
p2729
(lp2730
S'8.00%'
p2731
aS'San Bernardino'
p2732
asS'south el monte'
p2733
(lp2734
S'9.50%'
p2735
aS'Los Angeles'
p2736
asS'tupman'
p2737
(lp2738
S'7.50%'
p2739
aS'Kern'
p2740
asS'studio city'
p2741
(lp2742
S'9.00%'
p2743
aS'Los Angeles'
p2744
asS'two rock coast guard station'
p2745
(lp2746
S'8.25%'
p2747
aS'Sonoma'
p2748
asS'folsom'
p2749
(lp2750
S'8.00%'
p2751
aS'Sacramento'
p2752
asS'newbury park'
p2753
(lp2754
S'7.50%'
p2755
aS'Ventura'
p2756
asS'camp connell'
p2757
(lp2758
S'7.50%'
p2759
aS'Calaveras'
p2760
asS'homestead'
p2761
(lp2762
S'8.00%'
p2763
aS'Riverside'
p2764
asS'storrie'
p2765
(lp2766
S'7.50%'
p2767
aS'Plumas'
p2768
asS'almanor'
p2769
(lp2770
S'7.50%'
p2771
aS'Plumas'
p2772
asS'el segundo'
p2773
(lp2774
S'9.00%'
p2775
aS'Los Angeles'
p2776
asS'keyes'
p2777
(lp2778
S'7.63%'
p2779
aS'Stanislaus'
p2780
asS'inyo'
p2781
(lp2782
S'8.00%'
p2783
aS'Inyo'
p2784
asS'la palma'
p2785
(lp2786
S'8.00%'
p2787
aS'Orange'
p2788
asS'ocotillo wells'
p2789
(lp2790
S'8.00%'
p2791
aS'San Diego'
p2792
asS'flinn springs'
p2793
(lp2794
S'8.00%'
p2795
aS'San Diego'
p2796
asS'meiners oaks'
p2797
(lp2798
S'7.50%'
p2799
aS'Ventura'
p2800
asS'little valley'
p2801
(lp2802
S'7.50%'
p2803
aS'Lassen'
p2804
asS'pacoima'
p2805
(lp2806
S'9.00%'
p2807
aS'Los Angeles'
p2808
asS'santa rita park'
p2809
(lp2810
S'7.50%'
p2811
aS'Merced'
p2812
asS'weott'
p2813
(lp2814
S'7.50%'
p2815
aS'Humboldt'
p2816
asS'holy city'
p2817
(lp2818
S'8.50%'
p2819
aS'Santa Clara'
p2820
asS'mecca'
p2821
(lp2822
S'8.00%'
p2823
aS'Riverside'
p2824
asS'honeydew'
p2825
(lp2826
S'7.50%'
p2827
aS'Humboldt'
p2828
asS'herndon'
p2829
(lp2830
S'8.23%'
p2831
aS'Fresno'
p2832
asS'sites'
p2833
(lp2834
S'7.50%'
p2835
aS'Colusa'
p2836
asS'wasco'
p2837
(lp2838
S'7.50%'
p2839
aS'Kern'
p2840
asS'cassel'
p2841
(lp2842
S'7.50%'
p2843
aS'Shasta'
p2844
asS'willits'
p2845
(lp2846
S'8.00%'
p2847
aS'Mendocino(WCRS)'
p2848
asS"veteran's hospital"
p2849
(lp2850
S'9.00%'
p2851
aS'Los Angeles'
p2852
asS'upper lake/ upper lake valley'
p2853
(lp2854
S'7.50%'
p2855
aS'Lake'
p2856
asS'big bear lake'
p2857
(lp2858
S'8.00%'
p2859
aS'San Bernardino'
p2860
asS'guinda'
p2861
(lp2862
S'7.50%'
p2863
aS'Yolo'
p2864
asS'forest park'
p2865
(lp2866
S'9.00%'
p2867
aS'Los Angeles'
p2868
asS'clayton'
p2869
(lp2870
S'8.50%'
p2871
aS'Contra Costa'
p2872
asS'camarillo'
p2873
(lp2874
S'7.50%'
p2875
aS'Ventura'
p2876
asS'helendale'
p2877
(lp2878
S'8.00%'
p2879
aS'San Bernardino'
p2880
asS'vasquez rocks'
p2881
(lp2882
S'9.00%'
p2883
aS'Los Angeles'
p2884
asS'vista park'
p2885
(lp2886
S'7.50%'
p2887
aS'Kern'
p2888
asS'saratoga'
p2889
(lp2890
S'8.50%'
p2891
aS'Santa Clara'
p2892
asS'lorre estates'
p2893
(lp2894
S'8.50%'
p2895
aS'Santa Clara'
p2896
asS'del sur'
p2897
(lp2898
S'9.00%'
p2899
aS'Los Angeles'
p2900
asS'somis'
p2901
(lp2902
S'7.50%'
p2903
aS'Ventura'
p2904
asS'eastgate'
p2905
(lp2906
S'9.00%'
p2907
aS'Los Angeles'
p2908
asS'sawtelle'
p2909
(lp2910
S'9.00%'
p2911
aS'Los Angeles'
p2912
asS'stinson beach'
p2913
(lp2914
S'8.25%'
p2915
aS'Marin'
p2916
asS'oxnard'
p2917
(lp2918
S'8.00%'
p2919
aS'Ventura(OXND)'
p2920
asS'yosemite national park'
p2921
(lp2922
S'8.00%'
p2923
aS'Mariposa'
p2924
asS'valley springs'
p2925
(lp2926
S'7.50%'
p2927
aS'Calaveras'
p2928
asS'salinas'
p2929
(lp2930
S'8.00%'
p2931
aS'Monterey(SLNS)'
p2932
asS'yucaipa'
p2933
(lp2934
S'8.00%'
p2935
aS'San Bernardino'
p2936
asS'gilroy'
p2937
(lp2938
S'8.50%'
p2939
aS'Santa Clara'
p2940
asS'moreno valley'
p2941
(lp2942
S'8.00%'
p2943
aS'Riverside'
p2944
asS'la mesa'
p2945
(lp2946
S'8.75%'
p2947
aS'San Diego(LMSA)'
p2948
asS'fig garden village'
p2949
(lp2950
S'8.23%'
p2951
aS'Fresno'
p2952
asS'spyrock'
p2953
(lp2954
S'7.50%'
p2955
aS'Mendocino'
p2956
asS'linnell'
p2957
(lp2958
S'8.00%'
p2959
aS'Tulare'
p2960
asS'cedarville'
p2961
(lp2962
S'7.50%'
p2963
aS'Modoc'
p2964
asS'escondido'
p2965
(lp2966
S'8.00%'
p2967
aS'San Diego'
p2968
asS'ettersburg'
p2969
(lp2970
S'7.50%'
p2971
aS'Humboldt'
p2972
asS'pauma valley'
p2973
(lp2974
S'8.00%'
p2975
aS'San Diego'
p2976
asS'canoga park'
p2977
(lp2978
S'9.00%'
p2979
aS'Los Angeles'
p2980
asS'bostonia'
p2981
(lp2982
S'8.00%'
p2983
aS'San Diego'
p2984
asS'penryn'
p2985
(lp2986
S'7.50%'
p2987
aS'Placer'
p2988
asS'arnold'
p2989
(lp2990
S'7.50%'
p2991
aS'Calaveras'
p2992
asS'whiskeytown'
p2993
(lp2994
S'7.50%'
p2995
aS'Shasta'
p2996
asS'red mountain'
p2997
(lp2998
S'8.00%'
p2999
aS'San Bernardino'
p3000
asS'bodega'
p3001
(lp3002
S'8.25%'
p3003
aS'Sonoma'
p3004
asS'king city'
p3005
(lp3006
S'7.50%'
p3007
aS'Monterey'
p3008
asS'san martin'
p3009
(lp3010
S'8.50%'
p3011
aS'Santa Clara'
p3012
asS'korbel'
p3013
(lp3014
S'8.25%'
p3015
aS'Sonoma'
p3016
asS'point mugu'
p3017
(lp3018
S'7.50%'
p3019
aS'Ventura'
p3020
asS'annapolis'
p3021
(lp3022
S'8.25%'
p3023
aS'Sonoma'
p3024
asS'woodland'
p3025
(lp3026
S'8.25%'
p3027
aS'Yolo(WDLD)'
p3028
asS'tiburon'
p3029
(lp3030
S'8.25%'
p3031
aS'Marin'
p3032
asS"o'brien"
p3033
(lp3034
S'7.50%'
p3035
aS'Shasta'
p3036
asS'oceanside'
p3037
(lp3038
S'8.00%'
p3039
aS'San Diego'
p3040
asS'fair oaks'
p3041
(lp3042
S'8.00%'
p3043
aS'Sacramento'
p3044
asS'vista'
p3045
(lp3046
S'8.50%'
p3047
aS'San Diego(VSTA)'
p3048
asS'weed'
p3049
(lp3050
S'7.50%'
p3051
aS'Siskiyou'
p3052
asS'harris'
p3053
(lp3054
S'7.50%'
p3055
aS'Humboldt'
p3056
asS'big bend'
p3057
(lp3058
S'7.50%'
p3059
aS'Shasta'
p3060
asS'boyes hot springs'
p3061
(lp3062
S'8.25%'
p3063
aS'Sonoma'
p3064
asS'alturas'
p3065
(lp3066
S'7.50%'
p3067
aS'Modoc'
p3068
asS'south fork'
p3069
(lp3070
S'7.50%'
p3071
aS'Humboldt'
p3072
asS'eureka'
p3073
(lp3074
S'8.25%'
p3075
aS'Humboldt(ERKA)'
p3076
asS'caliente'
p3077
(lp3078
S'7.50%'
p3079
aS'Kern'
p3080
asS'poplar'
p3081
(lp3082
S'8.00%'
p3083
aS'Tulare'
p3084
asS'sunnyvale'
p3085
(lp3086
S'8.50%'
p3087
aS'Santa Clara'
p3088
asS'cathedral city'
p3089
(lp3090
S'9.00%'
p3091
aS'Riverside(CCGT)'
p3092
asS'quail valley'
p3093
(lp3094
S'8.00%'
p3095
aS'Riverside'
p3096
asS'hermosa beach'
p3097
(lp3098
S'9.00%'
p3099
aS'Los Angeles'
p3100
asS'parkfield'
p3101
(lp3102
S'7.50%'
p3103
aS'Monterey'
p3104
asS'brisbane'
p3105
(lp3106
S'8.50%'
p3107
aS'San Mateo'
p3108
asS'moffett field'
p3109
(lp3110
S'8.50%'
p3111
aS'Santa Clara'
p3112
asS'guerneville'
p3113
(lp3114
S'8.25%'
p3115
aS'Sonoma'
p3116
asS'petrolia'
p3117
(lp3118
S'7.50%'
p3119
aS'Humboldt'
p3120
asS'mountain view'
p3121
(lp3122
S'8.50%'
p3123
aS'Santa Clara'
p3124
asS'glenburn'
p3125
(lp3126
S'7.50%'
p3127
aS'Shasta'
p3128
asS'montalvo'
p3129
(lp3130
S'7.50%'
p3131
aS'Ventura'
p3132
asS'sulphur springs'
p3133
(lp3134
S'9.00%'
p3135
aS'Los Angeles'
p3136
asS'frazier park'
p3137
(lp3138
S'7.50%'
p3139
aS'Kern'
p3140
asS'ross'
p3141
(lp3142
S'8.25%'
p3143
aS'Marin'
p3144
asS'manton'
p3145
(lp3146
S'7.50%'
p3147
aS'Tehama'
p3148
asS'lemon grove'
p3149
(lp3150
S'8.00%'
p3151
aS'San Diego'
p3152
asS'firebaugh'
p3153
(lp3154
S'8.23%'
p3155
aS'Fresno'
p3156
asS'del monte park'
p3157
(lp3158
S'7.50%'
p3159
aS'Monterey'
p3160
asS'delhi'
p3161
(lp3162
S'7.50%'
p3163
aS'Merced'
p3164
asS'portola valley'
p3165
(lp3166
S'8.50%'
p3167
aS'San Mateo'
p3168
asS'walnut creek'
p3169
(lp3170
S'8.50%'
p3171
aS'Contra Costa'
p3172
asS'ferndale'
p3173
(lp3174
S'7.50%'
p3175
aS'Humboldt'
p3176
asS'fortuna'
p3177
(lp3178
S'7.50%'
p3179
aS'Humboldt'
p3180
asS'artesia'
p3181
(lp3182
S'9.00%'
p3183
aS'Los Angeles'
p3184
asS'giant forest'
p3185
(lp3186
S'8.00%'
p3187
aS'Tulare'
p3188
asS'rancho santa fe'
p3189
(lp3190
S'8.00%'
p3191
aS'San Diego'
p3192
asS'finley'
p3193
(lp3194
S'7.50%'
p3195
aS'Lake'
p3196
asS'burnt ranch'
p3197
(lp3198
S'7.50%'
p3199
aS'Trinity'
p3200
asS'baywood park'
p3201
(lp3202
S'7.50%'
p3203
aS'San Luis Obispo'
p3204
asS'davis creek'
p3205
(lp3206
S'7.50%'
p3207
aS'Modoc'
p3208
asS'rio vista'
p3209
(lp3210
S'7.63%'
p3211
aS'Solano'
p3212
asS'nice'
p3213
(lp3214
S'7.50%'
p3215
aS'Lake'
p3216
asS'pittsburg'
p3217
(lp3218
S'8.50%'
p3219
aS'Contra Costa'
p3220
asS'jamestown'
p3221
(lp3222
S'7.50%'
p3223
aS'Tuolumne'
p3224
asS'garey'
p3225
(lp3226
S'8.00%'
p3227
aS'Santa Barbara'
p3228
asS'palos verdes estates'
p3229
(lp3230
S'9.00%'
p3231
aS'Los Angeles'
p3232
asS'college city'
p3233
(lp3234
S'7.50%'
p3235
aS'Colusa'
p3236
asS'colfax'
p3237
(lp3238
S'7.50%'
p3239
aS'Placer'
p3240
asS'june lake'
p3241
(lp3242
S'7.50%'
p3243
aS'Mono'
p3244
asS'george a.f.b.'
p3245
(lp3246
S'8.00%'
p3247
aS'San Bernardino'
p3248
asS'douglas city'
p3249
(lp3250
S'7.50%'
p3251
aS'Trinity'
p3252
asS'pioneer'
p3253
(lp3254
S'8.00%'
p3255
aS'Amador'
p3256
asS'glassell park'
p3257
(lp3258
S'9.00%'
p3259
aS'Los Angeles'
p3260
asS'temecula'
p3261
(lp3262
S'8.00%'
p3263
aS'Riverside'
p3264
asS'saugus'
p3265
(lp3266
S'9.00%'
p3267
aS'Los Angeles'
p3268
asS'bass lake'
p3269
(lp3270
S'8.00%'
p3271
aS'Madera'
p3272
asS'palmdale'
p3273
(lp3274
S'9.00%'
p3275
aS'Los Angeles'
p3276
asS'nicasio'
p3277
(lp3278
S'8.25%'
p3279
aS'Marin'
p3280
asS'north edwards'
p3281
(lp3282
S'7.50%'
p3283
aS'Kern'
p3284
asS'industry'
p3285
(lp3286
S'9.00%'
p3287
aS'Los Angeles'
p3288
asS'garnet'
p3289
(lp3290
S'8.00%'
p3291
aS'Riverside'
p3292
asS'essex'
p3293
(lp3294
S'8.00%'
p3295
aS'San Bernardino'
p3296
asS'bryte'
p3297
(lp3298
S'8.00%'
p3299
aS'Yolo(BRTE)'
p3300
asS'lakeview'
p3301
(lp3302
S'8.00%'
p3303
aS'Riverside'
p3304
asS'duarte'
p3305
(lp3306
S'9.00%'
p3307
aS'Los Angeles'
p3308
asS'wofford heights'
p3309
(lp3310
S'7.50%'
p3311
aS'Kern'
p3312
asS'arvin'
p3313
(lp3314
S'8.50%'
p3315
aS'Kern(ARVN)'
p3316
asS'monterey park'
p3317
(lp3318
S'9.00%'
p3319
aS'Los Angeles'
p3320
asS'turlock'
p3321
(lp3322
S'7.63%'
p3323
aS'Stanislaus'
p3324
asS'altaville'
p3325
(lp3326
S'7.50%'
p3327
aS'Calaveras'
p3328
asS'feather falls'
p3329
(lp3330
S'7.50%'
p3331
aS'Butte'
p3332
asS'downey'
p3333
(lp3334
S'9.00%'
p3335
aS'Los Angeles'
p3336
asS'valencia'
p3337
(lp3338
S'9.00%'
p3339
aS'Los Angeles'
p3340
asS'somerset'
p3341
(lp3342
S'7.50%'
p3343
aS'El Dorado'
p3344
asS'alameda'
p3345
(lp3346
S'9.00%'
p3347
aS'Alameda'
p3348
asS'three rivers'
p3349
(lp3350
S'8.00%'
p3351
aS'Tulare'
p3352
asS'salton city'
p3353
(lp3354
S'8.00%'
p3355
aS'Imperial'
p3356
asS'castella'
p3357
(lp3358
S'7.50%'
p3359
aS'Shasta'
p3360
asS'nyeland acres'
p3361
(lp3362
S'7.50%'
p3363
aS'Ventura'
p3364
asS'comptche'
p3365
(lp3366
S'7.50%'
p3367
aS'Mendocino'
p3368
asS'tipton'
p3369
(lp3370
S'8.00%'
p3371
aS'Tulare'
p3372
asS'stanford'
p3373
(lp3374
S'8.50%'
p3375
aS'Santa Clara'
p3376
asS'beverly hills'
p3377
(lp3378
S'9.00%'
p3379
aS'Los Angeles'
p3380
asS'benton'
p3381
(lp3382
S'7.50%'
p3383
aS'Mono'
p3384
asS'ludlow'
p3385
(lp3386
S'8.00%'
p3387
aS'San Bernardino'
p3388
asS'strawberry'
p3389
(lp3390
S'7.50%'
p3391
aS'Tuolumne'
p3392
asS'mead valley'
p3393
(lp3394
S'8.00%'
p3395
aS'Riverside'
p3396
asS'freestone'
p3397
(lp3398
S'8.25%'
p3399
aS'Sonoma'
p3400
asS'sloughhouse'
p3401
(lp3402
S'8.00%'
p3403
aS'Sacramento'
p3404
asS'lake mary'
p3405
(lp3406
S'7.50%'
p3407
aS'Mono'
p3408
asS'chowchilla'
p3409
(lp3410
S'8.00%'
p3411
aS'Madera'
p3412
asS'pleasant grove'
p3413
(lp3414
S'7.50%'
p3415
aS'Sutter'
p3416
asS'edgemont'
p3417
(lp3418
S'8.00%'
p3419
aS'Riverside'
p3420
asS'redwood estates'
p3421
(lp3422
S'8.50%'
p3423
aS'Santa Clara'
p3424
asS'march a.f.b.'
p3425
(lp3426
S'8.00%'
p3427
aS'Riverside'
p3428
asS'igo'
p3429
(lp3430
S'7.50%'
p3431
aS'Shasta'
p3432
asS'fish camp'
p3433
(lp3434
S'8.00%'
p3435
aS'Mariposa'
p3436
asS'cypress'
p3437
(lp3438
S'8.00%'
p3439
aS'Orange(CYPR) '
p3440
asS'sleepy valley'
p3441
(lp3442
S'9.00%'
p3443
aS'Los Angeles'
p3444
asS'ahwahnee'
p3445
(lp3446
S'8.00%'
p3447
aS'Madera'
p3448
asS'hawthorne'
p3449
(lp3450
S'9.00%'
p3451
aS'Los Angeles'
p3452
asS'coloma'
p3453
(lp3454
S'7.50%'
p3455
aS'El Dorado'
p3456
asS'diablo'
p3457
(lp3458
S'8.50%'
p3459
aS'Contra Costa'
p3460
asS'branscomb'
p3461
(lp3462
S'7.50%'
p3463
aS'Mendocino'
p3464
asS'waukena'
p3465
(lp3466
S'8.00%'
p3467
aS'Tulare'
p3468
asS'belden'
p3469
(lp3470
S'7.50%'
p3471
aS'Plumas'
p3472
asS'lakehead'
p3473
(lp3474
S'7.50%'
p3475
aS'Shasta'
p3476
asS'nelson'
p3477
(lp3478
S'7.50%'
p3479
aS'Butte'
p3480
asS'paso robles'
p3481
(lp3482
S'7.50%'
p3483
aS'San Luis Obispo'
p3484
asS'macdoel'
p3485
(lp3486
S'7.50%'
p3487
aS'Siskiyou'
p3488
asS'santa barbara'
p3489
(lp3490
S'8.00%'
p3491
aS'Santa Barbara'
p3492
asS'highgrove'
p3493
(lp3494
S'8.00%'
p3495
aS'Riverside'
p3496
asS'monterey'
p3497
(lp3498
S'7.50%'
p3499
aS'Monterey'
p3500
asS'glendora'
p3501
(lp3502
S'9.00%'
p3503
aS'Los Angeles'
p3504
asS'cazadero'
p3505
(lp3506
S'8.25%'
p3507
aS'Sonoma'
p3508
asS'hilt'
p3509
(lp3510
S'7.50%'
p3511
aS'Siskiyou'
p3512
asS'clearlake park'
p3513
(lp3514
S'8.00%'
p3515
aS'Lake(CLPS)'
p3516
asS'tahoma'
p3517
(lp3518
S'7.50%'
p3519
aS'Placer'
p3520
asS'bassett'
p3521
(lp3522
S'9.00%'
p3523
aS'Los Angeles'
p3524
asS'mettler'
p3525
(lp3526
S'7.50%'
p3527
aS'Kern'
p3528
asS'healdsburg'
p3529
(lp3530
S'8.25%'
p3531
aS'Sonoma'
p3532
asS'farmington'
p3533
(lp3534
S'8.00%'
p3535
aS'San Joaquin'
p3536
asS'felton'
p3537
(lp3538
S'8.25%'
p3539
aS'Santa Cruz'
p3540
asS'hillsborough'
p3541
(lp3542
S'8.50%'
p3543
aS'San Mateo'
p3544
asS'rancho cordova'
p3545
(lp3546
S'8.00%'
p3547
aS'Sacramento'
p3548
asS'tranquillity'
p3549
(lp3550
S'8.23%'
p3551
aS'Fresno'
p3552
asS'ben lomond'
p3553
(lp3554
S'8.25%'
p3555
aS'Santa Cruz'
p3556
asS'lakewood'
p3557
(lp3558
S'9.00%'
p3559
aS'Los Angeles'
p3560
asS'yankee hill'
p3561
(lp3562
S'7.50%'
p3563
aS'Butte'
p3564
asS'atwater'
p3565
(lp3566
S'7.50%'
p3567
aS'Merced'
p3568
asS'pinedale'
p3569
(lp3570
S'8.23%'
p3571
aS'Fresno'
p3572
asS'l.a. airport'
p3573
(lp3574
S'9.00%'
p3575
aS'Los Angeles'
p3576
asS'broderick'
p3577
(lp3578
S'8.00%'
p3579
aS'Yolo(BRDK)'
p3580
asS'bridgeport'
p3581
(lp3582
S'7.50%'
p3583
aS'Mono'
p3584
asS'cambrian park'
p3585
(lp3586
S'8.50%'
p3587
aS'Santa Clara'
p3588
asS'bangor'
p3589
(lp3590
S'7.50%'
p3591
aS'Butte'
p3592
asS'pondosa'
p3593
(lp3594
S'7.50%'
p3595
aS'Siskiyou'
p3596
asS'diamond bar'
p3597
(lp3598
S'9.00%'
p3599
aS'Los Angeles'
p3600
asS'samoa'
p3601
(lp3602
S'7.50%'
p3603
aS'Humboldt'
p3604
asS'death valley'
p3605
(lp3606
S'8.00%'
p3607
aS'Inyo'
p3608
asS'castle a.f.b.'
p3609
(lp3610
S'7.50%'
p3611
aS'Merced'
p3612
asS'meadow vista'
p3613
(lp3614
S'7.50%'
p3615
aS'Placer'
p3616
asS'valley center'
p3617
(lp3618
S'8.00%'
p3619
aS'San Diego'
p3620
asS'cottonwood'
p3621
(lp3622
S'7.50%'
p3623
aS'Shasta'
p3624
asS'trinity center'
p3625
(lp3626
S'7.50%'
p3627
aS'Trinity'
p3628
asS'royal oaks'
p3629
(lp3630
S'7.50%'
p3631
aS'Monterey'
p3632
asS'lynwood'
p3633
(lp3634
S'9.00%'
p3635
aS'Los Angeles'
p3636
asS'paskenta'
p3637
(lp3638
S'7.50%'
p3639
aS'Tehama'
p3640
asS'guasti'
p3641
(lp3642
S'8.00%'
p3643
aS'San Bernardino'
p3644
asS'clear creek'
p3645
(lp3646
S'7.50%'
p3647
aS'Siskiyou'
p3648
asS'los altos hills'
p3649
(lp3650
S'8.50%'
p3651
aS'Santa Clara'
p3652
asS'greenville'
p3653
(lp3654
S'7.50%'
p3655
aS'Plumas'
p3656
asS'oro grande'
p3657
(lp3658
S'8.00%'
p3659
aS'San Bernardino'
p3660
asS'orick'
p3661
(lp3662
S'7.50%'
p3663
aS'Humboldt'
p3664
asS'tulare'
p3665
(lp3666
S'8.50%'
p3667
aS'Tulare(TLRE)'
p3668
asS'tahoe city'
p3669
(lp3670
S'7.50%'
p3671
aS'Placer'
p3672
asS'alpaugh'
p3673
(lp3674
S'8.00%'
p3675
aS'Tulare'
p3676
asS'pollock pines'
p3677
(lp3678
S'7.50%'
p3679
aS'El Dorado'
p3680
asS'parlier'
p3681
(lp3682
S'8.23%'
p3683
aS'Fresno'
p3684
asS'carpinteria'
p3685
(lp3686
S'8.00%'
p3687
aS'Santa Barbara'
p3688
asS'berkeley'
p3689
(lp3690
S'9.00%'
p3691
aS'Alameda'
p3692
asS'heber'
p3693
(lp3694
S'8.00%'
p3695
aS'Imperial'
p3696
asS'standard'
p3697
(lp3698
S'7.50%'
p3699
aS'Tuolumne'
p3700
asS'norden'
p3701
(lp3702
S'7.63%'
p3703
aS'Nevada'
p3704
asS'naval'
p3705
(lp3706
S'8.00%'
p3707
aS'Ventura(VNVL)'
p3708
asS'oakville'
p3709
(lp3710
S'8.00%'
p3711
aS'Napa'
p3712
asS'taft'
p3713
(lp3714
S'7.50%'
p3715
aS'Kern'
p3716
asS'canby'
p3717
(lp3718
S'7.50%'
p3719
aS'Modoc'
p3720
asS'calabasas park'
p3721
(lp3722
S'9.00%'
p3723
aS'Los Angeles'
p3724
asS'chicago park'
p3725
(lp3726
S'7.63%'
p3727
aS'Nevada'
p3728
asS'wildomar'
p3729
(lp3730
S'8.00%'
p3731
aS'Riverside'
p3732
asS'goleta'
p3733
(lp3734
S'8.00%'
p3735
aS'Santa Barbara'
p3736
asS'florence'
p3737
(lp3738
S'9.00%'
p3739
aS'Los Angeles'
p3740
asS'asti'
p3741
(lp3742
S'8.25%'
p3743
aS'Sonoma'
p3744
asS'mare island'
p3745
(lp3746
S'7.63%'
p3747
aS'Solano'
p3748
asS'elk creek'
p3749
(lp3750
S'7.50%'
p3751
aS'Glenn'
p3752
asS'kaweah'
p3753
(lp3754
S'8.00%'
p3755
aS'Tulare'
p3756
asS'san juan plaza'
p3757
(lp3758
S'8.00%'
p3759
aS'Orange'
p3760
asS'newhall'
p3761
(lp3762
S'9.00%'
p3763
aS'Los Angeles'
p3764
asS'san miguel'
p3765
(lp3766
S'7.50%'
p3767
aS'San Luis Obispo'
p3768
asS'chula vista'
p3769
(lp3770
S'8.00%'
p3771
aS'San Diego'
p3772
asS'linden'
p3773
(lp3774
S'8.00%'
p3775
aS'San Joaquin'
p3776
asS'permanente'
p3777
(lp3778
S'8.50%'
p3779
aS'Santa Clara'
p3780
asS'black hawk'
p3781
(lp3782
S'8.50%'
p3783
aS'Contra Costa'
p3784
asS'scotia'
p3785
(lp3786
S'7.50%'
p3787
aS'Humboldt'
p3788
asS'ramona'
p3789
(lp3790
S'8.00%'
p3791
aS'San Diego'
p3792
asS'inverness'
p3793
(lp3794
S'8.25%'
p3795
aS'Marin'
p3796
asS'planada'
p3797
(lp3798
S'7.50%'
p3799
aS'Merced'
p3800
asS'santa ysabel'
p3801
(lp3802
S'8.00%'
p3803
aS'San Diego'
p3804
asS'gaviota'
p3805
(lp3806
S'8.00%'
p3807
aS'Santa Barbara'
p3808
asS'coyote'
p3809
(lp3810
S'8.50%'
p3811
aS'Santa Clara'
p3812
asS'ryde'
p3813
(lp3814
S'8.00%'
p3815
aS'Sacramento'
p3816
asS'riverbank'
p3817
(lp3818
S'7.63%'
p3819
aS'Stanislaus'
p3820
asS'lincoln heights'
p3821
(lp3822
S'9.00%'
p3823
aS'Los Angeles'
p3824
asS'pine valley'
p3825
(lp3826
S'8.00%'
p3827
aS'San Diego'
p3828
asS'long beach'
p3829
(lp3830
S'9.00%'
p3831
aS'Los Angeles'
p3832
asS'petaluma'
p3833
(lp3834
S'8.25%'
p3835
aS'Sonoma'
p3836
asS'ruby valley'
p3837
(lp3838
S'7.50%'
p3839
aS'Humboldt'
p3840
asS'novato'
p3841
(lp3842
S'8.75%'
p3843
aS'Marin'
p3844
asS'city of commerce'
p3845
(lp3846
S'9.00%'
p3847
aS'Los Angeles'
p3848
asS'nevada city'
p3849
(lp3850
S'8.13%'
p3851
aS'Nevada(NVPL)'
p3852
asS'cross roads'
p3853
(lp3854
S'8.00%'
p3855
aS'San Bernardino'
p3856
asS'strathmore'
p3857
(lp3858
S'8.00%'
p3859
aS'Tulare'
p3860
asS'santa paula'
p3861
(lp3862
S'7.50%'
p3863
aS'Ventura'
p3864
asS'marin city'
p3865
(lp3866
S'8.25%'
p3867
aS'Marin'
p3868
asS'ione'
p3869
(lp3870
S'8.00%'
p3871
aS'Amador'
p3872
asS'iowa hill'
p3873
(lp3874
S'7.50%'
p3875
aS'Placer'
p3876
asS'pond'
p3877
(lp3878
S'7.50%'
p3879
aS'Kern'
p3880
asS'weimar'
p3881
(lp3882
S'7.50%'
p3883
aS'Placer'
p3884
asS'city terrace'
p3885
(lp3886
S'9.00%'
p3887
aS'Los Angeles'
p3888
asS'kings beach'
p3889
(lp3890
S'7.50%'
p3891
aS'Placer'
p3892
asS'patton'
p3893
(lp3894
S'8.00%'
p3895
aS'San Bernardino'
p3896
asS'del rey oaks'
p3897
(lp3898
S'8.50%'
p3899
aS'Monterey(DLRY)'
p3900
asS'johannesburg'
p3901
(lp3902
S'7.50%'
p3903
aS'Kern'
p3904
asS'calabasas highlands'
p3905
(lp3906
S'9.00%'
p3907
aS'Los Angeles'
p3908
asS'ridgecrest'
p3909
(lp3910
S'7.50%'
p3911
aS'Kern'
p3912
asS'olympic valley'
p3913
(lp3914
S'7.50%'
p3915
aS'Placer'
p3916
asS'perris'
p3917
(lp3918
S'8.00%'
p3919
aS'Riverside'
p3920
asS'granada hills'
p3921
(lp3922
S'9.00%'
p3923
aS'Los Angeles'
p3924
asS'el viejo'
p3925
(lp3926
S'7.63%'
p3927
aS'Stanislaus'
p3928
asS'pinecrest'
p3929
(lp3930
S'7.50%'
p3931
aS'Tuolumne'
p3932
asS'wildwood'
p3933
(lp3934
S'7.50%'
p3935
aS'Shasta'
p3936
asS'kettleman city'
p3937
(lp3938
S'7.50%'
p3939
aS'Kings'
p3940
asS'ceres'
p3941
(lp3942
S'8.13%'
p3943
aS'Stanislaus(CRPS)'
p3944
asS'brents junction'
p3945
(lp3946
S'9.00%'
p3947
aS'Los Angeles'
p3948
asS'magalia'
p3949
(lp3950
S'7.50%'
p3951
aS'Butte'
p3952
asS'shandon'
p3953
(lp3954
S'7.50%'
p3955
aS'San Luis Obispo'
p3956
asS'sierraville'
p3957
(lp3958
S'7.50%'
p3959
aS'Sierra'
p3960
asS'desert hot springs'
p3961
(lp3962
S'8.00%'
p3963
aS'Riverside'
p3964
asS'auburn'
p3965
(lp3966
S'7.50%'
p3967
aS'Placer'
p3968
asS'thermal'
p3969
(lp3970
S'8.00%'
p3971
aS'Riverside'
p3972
asS'helm'
p3973
(lp3974
S'8.23%'
p3975
aS'Fresno'
p3976
asS'friendly valley'
p3977
(lp3978
S'9.00%'
p3979
aS'Los Angeles'
p3980
asS'hayward'
p3981
(lp3982
S'9.00%'
p3983
aS'Alameda'
p3984
asS'el dorado'
p3985
(lp3986
S'7.50%'
p3987
aS'El Dorado'
p3988
asS'sunset whitney ranch'
p3989
(lp3990
S'7.50%'
p3991
aS'Placer'
p3992
asS'mt. baldy'
p3993
(lp3994
S'8.00%'
p3995
aS'San Bernardino'
p3996
asS'lookout'
p3997
(lp3998
S'7.50%'
p3999
aS'Modoc'
p4000
asS'twentynine palms'
p4001
(lp4002
S'8.00%'
p4003
aS'San Bernardino'
p4004
asS'university park'
p4005
(lp4006
S'8.00%'
p4007
aS'Orange'
p4008
asS'terminal island'
p4009
(lp4010
S'9.00%'
p4011
aS'Los Angeles'
p4012
asS'santa margarita'
p4013
(lp4014
S'7.50%'
p4015
aS'San Luis Obispo'
p4016
asS'watsonville'
p4017
(lp4018
S'8.50%'
p4019
aS'Santa Cruz(WTVL)'
p4020
asS'big bar'
p4021
(lp4022
S'7.50%'
p4023
aS'Trinity'
p4024
asS'carmel valley'
p4025
(lp4026
S'7.50%'
p4027
aS'Monterey'
p4028
asS'moss beach'
p4029
(lp4030
S'8.50%'
p4031
aS'San Mateo'
p4032
asS'colma'
p4033
(lp4034
S'8.50%'
p4035
aS'San Mateo'
p4036
asS'vandenberg a.f.b'
p4037
(lp4038
S'8.00%'
p4039
aS'Santa Barbara'
p4040
asS'denny'
p4041
(lp4042
S'7.50%'
p4043
aS'Trinity'
p4044
asS'south pasadena'
p4045
(lp4046
S'9.00%'
p4047
aS'Los Angeles'
p4048
asS'hawaiian gardens'
p4049
(lp4050
S'9.00%'
p4051
aS'Los Angeles'
p4052
asS'wrightwood'
p4053
(lp4054
S'8.00%'
p4055
aS'San Bernardino'
p4056
asS'san gabriel'
p4057
(lp4058
S'9.00%'
p4059
aS'Los Angeles'
p4060
asS'sherwin plaza'
p4061
(lp4062
S'7.50%'
p4063
aS'Mono'
p4064
asS'woodbridge'
p4065
(lp4066
S'8.00%'
p4067
aS'San Joaquin'
p4068
asS'soledad'
p4069
(lp4070
S'7.50%'
p4071
aS'Monterey'
p4072
asS'ventucopa'
p4073
(lp4074
S'8.00%'
p4075
aS'Santa Barbara'
p4076
asS'west point'
p4077
(lp4078
S'7.50%'
p4079
aS'Calaveras'
p4080
asS'sloat'
p4081
(lp4082
S'7.50%'
p4083
aS'Plumas'
p4084
asS'perry'
p4085
(lp4086
S'9.00%'
p4087
aS'Los Angeles'
p4088
asS'quincy'
p4089
(lp4090
S'7.50%'
p4091
aS'Plumas'
p4092
asS'pedley'
p4093
(lp4094
S'8.00%'
p4095
aS'Riverside'
p4096
asS'forestville'
p4097
(lp4098
S'8.25%'
p4099
aS'Sonoma'
p4100
asS'kensington'
p4101
(lp4102
S'8.50%'
p4103
aS'Contra Costa'
p4104
asS'eagle rock'
p4105
(lp4106
S'9.00%'
p4107
aS'Los Angeles'
p4108
asS'alta loma'
p4109
(lp4110
S'8.00%'
p4111
aS'San Bernardino'
p4112
asS'paradise'
p4113
(lp4114
S'7.50%'
p4115
aS'Butte'
p4116
asS'sierra madre'
p4117
(lp4118
S'9.00%'
p4119
aS'Los Angeles'
p4120
asS'twin peaks'
p4121
(lp4122
S'8.00%'
p4123
aS'San Bernardino'
p4124
asS'crescent mills'
p4125
(lp4126
S'7.50%'
p4127
aS'Plumas'
p4128
asS'antioch'
p4129
(lp4130
S'8.50%'
p4131
aS'Contra Costa'
p4132
asS'fiddletown'
p4133
(lp4134
S'8.00%'
p4135
aS'Amador'
p4136
asS'bell gardens'
p4137
(lp4138
S'9.00%'
p4139
aS'Los Angeles'
p4140
asS'pine grove'
p4141
(lp4142
S'8.00%'
p4143
aS'Amador'
p4144
asS'solvang'
p4145
(lp4146
S'8.00%'
p4147
aS'Santa Barbara'
p4148
asS'dinkey creek'
p4149
(lp4150
S'8.23%'
p4151
aS'Fresno'
p4152
asS'santa monica'
p4153
(lp4154
S'9.50%'
p4155
aS'Los Angeles'
p4156
asS'weaverville'
p4157
(lp4158
S'7.50%'
p4159
aS'Trinity'
p4160
asS'monarch beach'
p4161
(lp4162
S'8.00%'
p4163
aS'Orange'
p4164
asS'coarsegold'
p4165
(lp4166
S'8.00%'
p4167
aS'Madera'
p4168
asS'lincoln acres'
p4169
(lp4170
S'8.00%'
p4171
aS'San Diego'
p4172
asS'lucerne'
p4173
(lp4174
S'7.50%'
p4175
aS'Lake'
p4176
asS'foresthill'
p4177
(lp4178
S'7.50%'
p4179
aS'Placer'
p4180
asS'lawndale'
p4181
(lp4182
S'9.00%'
p4183
aS'Los Angeles'
p4184
asS'arlington'
p4185
(lp4186
S'8.00%'
p4187
aS'Riverside'
p4188
asS'chambers lodge'
p4189
(lp4190
S'7.50%'
p4191
aS'Placer'
p4192
asS'piedmont'
p4193
(lp4194
S'9.00%'
p4195
aS'Alameda'
p4196
asS'placentia'
p4197
(lp4198
S'8.00%'
p4199
aS'Orange'
p4200
asS'arrowbear lake'
p4201
(lp4202
S'8.00%'
p4203
aS'San Bernardino'
p4204
asS'murphys'
p4205
(lp4206
S'7.50%'
p4207
aS'Calaveras'
p4208
asS'woodfords'
p4209
(lp4210
S'7.50%'
p4211
aS'Alpine'
p4212
asS'south lake tahoe'
p4213
(lp4214
S'8.00%'
p4215
aS'El Dorado(SLTG)'
p4216
asS'north highlands'
p4217
(lp4218
S'8.00%'
p4219
aS'Sacramento'
p4220
asS'glen avon'
p4221
(lp4222
S'8.00%'
p4223
aS'Riverside'
p4224
asS'arcata'
p4225
(lp4226
S'8.25%'
p4227
aS'Humboldt(ARGF)'
p4228
asS'laytonville'
p4229
(lp4230
S'7.50%'
p4231
aS'Mendocino'
p4232
asS'lake sherwood'
p4233
(lp4234
S'7.50%'
p4235
aS'Ventura'
p4236
asS'mount hermon'
p4237
(lp4238
S'8.25%'
p4239
aS'Santa Cruz'
p4240
asS'littleriver'
p4241
(lp4242
S'7.50%'
p4243
aS'Mendocino'
p4244
asS'san luis obispo'
p4245
(lp4246
S'8.00%'
p4247
aS'San Luis Obispo(SLOG)'
p4248
asS'stevinson'
p4249
(lp4250
S'7.50%'
p4251
aS'Merced'
p4252
asS'peninsula village'
p4253
(lp4254
S'7.50%'
p4255
aS'Plumas'
p4256
asS'camp beale'
p4257
(lp4258
S'7.50%'
p4259
aS'Yuba'
p4260
asS'knights ferry'
p4261
(lp4262
S'7.63%'
p4263
aS'Stanislaus'
p4264
asS'laguna niguel'
p4265
(lp4266
S'8.00%'
p4267
aS'Orange'
p4268
asS'hacienda heights'
p4269
(lp4270
S'9.00%'
p4271
aS'Los Angeles'
p4272
asS'santa maria'
p4273
(lp4274
S'8.00%'
p4275
aS'Santa Barbara'
p4276
asS'clovis'
p4277
(lp4278
S'8.23%'
p4279
aS'Fresno'
p4280
asS'charter oak'
p4281
(lp4282
S'9.00%'
p4283
aS'Los Angeles'
p4284
asS'patterson'
p4285
(lp4286
S'7.63%'
p4287
aS'Stanislaus'
p4288
asS'bay point'
p4289
(lp4290
S'8.50%'
p4291
aS'Contra Costa'
p4292
asS'palomar mountain'
p4293
(lp4294
S'8.00%'
p4295
aS'San Diego'
p4296
asS'littlerock'
p4297
(lp4298
S'9.00%'
p4299
aS'Los Angeles'
p4300
asS'san bruno'
p4301
(lp4302
S'8.50%'
p4303
aS'San Mateo'
p4304
asS'forks of salmon'
p4305
(lp4306
S'7.50%'
p4307
aS'Siskiyou'
p4308
asS'meeks bay'
p4309
(lp4310
S'7.50%'
p4311
aS'El Dorado'
p4312
asS'big river'
p4313
(lp4314
S'8.00%'
p4315
aS'San Bernardino'
p4316
asS'fallbrook junction'
p4317
(lp4318
S'8.00%'
p4319
aS'San Diego'
p4320
asS'west hills'
p4321
(lp4322
S'9.00%'
p4323
aS'Los Angeles'
p4324
asS'clements'
p4325
(lp4326
S'8.00%'
p4327
aS'San Joaquin'
p4328
asS'eagleville'
p4329
(lp4330
S'7.50%'
p4331
aS'Modoc'
p4332
asS'olancha'
p4333
(lp4334
S'8.00%'
p4335
aS'Inyo'
p4336
asS'rio nido'
p4337
(lp4338
S'8.25%'
p4339
aS'Sonoma'
p4340
asS'big creek'
p4341
(lp4342
S'8.23%'
p4343
aS'Fresno'
p4344
asS'highway city'
p4345
(lp4346
S'8.23%'
p4347
aS'Fresno'
p4348
asS'winton'
p4349
(lp4350
S'7.50%'
p4351
aS'Merced'
p4352
asS'pixley'
p4353
(lp4354
S'8.00%'
p4355
aS'Tulare'
p4356
asS'fullerton'
p4357
(lp4358
S'8.00%'
p4359
aS'Orange'
p4360
asS'piedra'
p4361
(lp4362
S'8.23%'
p4363
aS'Fresno'
p4364
asS'east san pedro'
p4365
(lp4366
S'9.00%'
p4367
aS'Los Angeles'
p4368
asS'larkspur'
p4369
(lp4370
S'8.25%'
p4371
aS'Marin'
p4372
asS'liberty farms'
p4373
(lp4374
S'7.63%'
p4375
aS'Solano'
p4376
asS'woodside'
p4377
(lp4378
S'8.50%'
p4379
aS'San Mateo'
p4380
asS'larwin plaza'
p4381
(lp4382
S'7.63%'
p4383
aS'Solano'
p4384
asS'saint helena'
p4385
(lp4386
S'8.00%'
p4387
aS'Napa'
p4388
asS'forbestown'
p4389
(lp4390
S'7.50%'
p4391
aS'Butte'
p4392
asS'lemoore'
p4393
(lp4394
S'7.50%'
p4395
aS'Kings'
p4396
asS'alberhill'
p4397
(lp4398
S'8.00%'
p4399
aS'Riverside'
p4400
asS'hamilton city'
p4401
(lp4402
S'7.50%'
p4403
aS'Glenn'
p4404
asS'shingletown'
p4405
(lp4406
S'7.50%'
p4407
aS'Shasta'
p4408
asS'carlotta'
p4409
(lp4410
S'7.50%'
p4411
aS'Humboldt'
p4412
asS'mokelumne hill'
p4413
(lp4414
S'7.50%'
p4415
aS'Calaveras'
p4416
asS'vincent'
p4417
(lp4418
S'9.00%'
p4419
aS'Los Angeles'
p4420
asS'kentfield'
p4421
(lp4422
S'8.25%'
p4423
aS'Marin'
p4424
asS'isla vista'
p4425
(lp4426
S'8.00%'
p4427
aS'Santa Barbara'
p4428
asS'cucamonga'
p4429
(lp4430
S'8.00%'
p4431
aS'San Bernardino'
p4432
asS'vina'
p4433
(lp4434
S'7.50%'
p4435
aS'Tehama'
p4436
asS'corte madera'
p4437
(lp4438
S'8.25%'
p4439
aS'Marin'
p4440
asS'byron'
p4441
(lp4442
S'8.50%'
p4443
aS'Contra Costa'
p4444
asS'bard'
p4445
(lp4446
S'8.00%'
p4447
aS'Imperial'
p4448
asS'callahan'
p4449
(lp4450
S'7.50%'
p4451
aS'Siskiyou'
p4452
asS'etiwanda'
p4453
(lp4454
S'8.00%'
p4455
aS'San Bernardino'
p4456
asS'salyer'
p4457
(lp4458
S'7.50%'
p4459
aS'Trinity'
p4460
asS'proberta'
p4461
(lp4462
S'7.50%'
p4463
aS'Tehama'
p4464
asS'fall river mills'
p4465
(lp4466
S'7.50%'
p4467
aS'Shasta'
p4468
asS'palo verde'
p4469
(lp4470
S'8.00%'
p4471
aS'Imperial'
p4472
asS'orosi'
p4473
(lp4474
S'8.00%'
p4475
aS'Tulare'
p4476
asS'daly city'
p4477
(lp4478
S'8.50%'
p4479
aS'San Mateo'
p4480
asS'burney'
p4481
(lp4482
S'7.50%'
p4483
aS'Shasta'
p4484
asS'fontana'
p4485
(lp4486
S'8.00%'
p4487
aS'San Bernardino'
p4488
asS'new almaden'
p4489
(lp4490
S'8.50%'
p4491
aS'Santa Clara'
p4492
asS'canyondam'
p4493
(lp4494
S'7.50%'
p4495
aS'Plumas'
p4496
asS'cotati'
p4497
(lp4498
S'8.75%'
p4499
aS'Sonoma(CTGF)'
p4500
asS'nashville'
p4501
(lp4502
S'7.50%'
p4503
aS'El Dorado'
p4504
asS'smithflat'
p4505
(lp4506
S'7.50%'
p4507
aS'El Dorado'
p4508
asS'west hollywood'
p4509
(lp4510
S'9.00%'
p4511
aS'Los Angeles'
p4512
asS'loleta'
p4513
(lp4514
S'7.50%'
p4515
aS'Humboldt'
p4516
asS'marsh manor'
p4517
(lp4518
S'8.50%'
p4519
aS'San Mateo'
p4520
asS'point pittsburg'
p4521
(lp4522
S'8.50%'
p4523
aS'Contra Costa'
p4524
asS'etna'
p4525
(lp4526
S'7.50%'
p4527
aS'Siskiyou'
p4528
asS'san bernardino'
p4529
(lp4530
S'8.25%'
p4531
aS'San Bernardino(SBRN)'
p4532
asS'chatsworth'
p4533
(lp4534
S'9.00%'
p4535
aS'Los Angeles'
p4536
asS'yettem'
p4537
(lp4538
S'8.00%'
p4539
aS'Tulare'
p4540
asS'colton'
p4541
(lp4542
S'8.00%'
p4543
aS'San Bernardino'
p4544
asS'san andreas'
p4545
(lp4546
S'7.50%'
p4547
aS'Calaveras'
p4548
asS'loyalton'
p4549
(lp4550
S'7.50%'
p4551
aS'Sierra'
p4552
asS'whispering pines'
p4553
(lp4554
S'7.50%'
p4555
aS'Lake'
p4556
asS'west pittsburg'
p4557
(lp4558
S'8.50%'
p4559
aS'Contra Costa'
p4560
asS'red bluff'
p4561
(lp4562
S'7.50%'
p4563
aS'Tehama'
p4564
asS'sattley'
p4565
(lp4566
S'7.50%'
p4567
aS'Sierra'
p4568
asS'rose bowl'
p4569
(lp4570
S'9.00%'
p4571
aS'Los Angeles'
p4572
asS'island mountain'
p4573
(lp4574
S'7.50%'
p4575
aS'Trinity'
p4576
asS'galt'
p4577
(lp4578
S'8.50%'
p4579
aS'Sacramento(GLTS)'
p4580
asS'richardson springs'
p4581
(lp4582
S'7.50%'
p4583
aS'Butte'
p4584
asS'cresta blanca'
p4585
(lp4586
S'9.00%'
p4587
aS'Alameda'
p4588
asS'bell'
p4589
(lp4590
S'9.00%'
p4591
aS'Los Angeles'
p4592
asS'echo park'
p4593
(lp4594
S'9.00%'
p4595
aS'Los Angeles'
p4596
asS'rough and ready'
p4597
(lp4598
S'7.63%'
p4599
aS'Nevada'
p4600
asS'kings canyon national park'
p4601
(lp4602
S'8.00%'
p4603
aS'Tulare'
p4604
asS'tehama'
p4605
(lp4606
S'7.50%'
p4607
aS'Tehama'
p4608
asS'pebble beach'
p4609
(lp4610
S'7.50%'
p4611
aS'Monterey'
p4612
asS'caspar'
p4613
(lp4614
S'7.50%'
p4615
aS'Mendocino'
p4616
asS'carnelian bay'
p4617
(lp4618
S'7.50%'
p4619
aS'Placer'
p4620
asS'valley fair'
p4621
(lp4622
S'8.50%'
p4623
aS'Santa Clara'
p4624
asS'somes bar'
p4625
(lp4626
S'7.50%'
p4627
aS'Siskiyou'
p4628
asS'napa'
p4629
(lp4630
S'8.00%'
p4631
aS'Napa'
p4632
asS'san lorenzo'
p4633
(lp4634
S'9.00%'
p4635
aS'Alameda'
p4636
asS'frontera'
p4637
(lp4638
S'8.00%'
p4639
aS'Riverside'
p4640
asS'rancho palos verdes'
p4641
(lp4642
S'9.00%'
p4643
aS'Los Angeles'
p4644
asS'flournoy'
p4645
(lp4646
S'7.50%'
p4647
aS'Tehama'
p4648
asS'chester'
p4649
(lp4650
S'7.50%'
p4651
aS'Plumas'
p4652
asS'vallejo'
p4653
(lp4654
S'7.63%'
p4655
aS'Solano'
p4656
asS'crenshaw'
p4657
(lp4658
S'9.00%'
p4659
aS'Los Angeles'
p4660
asS'san joaquin'
p4661
(lp4662
S'8.23%'
p4663
aS'Fresno'
p4664
asS'panorama city'
p4665
(lp4666
S'9.00%'
p4667
aS'Los Angeles'
p4668
asS'lucerne valley'
p4669
(lp4670
S'8.00%'
p4671
aS'San Bernardino'
p4672
asS'lake los angeles'
p4673
(lp4674
S'9.00%'
p4675
aS'Los Angeles'
p4676
asS'porterville'
p4677
(lp4678
S'8.50%'
p4679
aS'Tulare(PTVL)'
p4680
asS'mckinleyville'
p4681
(lp4682
S'7.50%'
p4683
aS'Humboldt'
p4684
asS'jolon'
p4685
(lp4686
S'7.50%'
p4687
aS'Monterey'
p4688
asS'piercy'
p4689
(lp4690
S'7.50%'
p4691
aS'Mendocino'
p4692
asS'paicines'
p4693
(lp4694
S'7.50%'
p4695
aS'San Benito'
p4696
asS'llano'
p4697
(lp4698
S'9.00%'
p4699
aS'Los Angeles'
p4700
asS'templeton'
p4701
(lp4702
S'7.50%'
p4703
aS'San Luis Obispo'
p4704
asS'earlimart'
p4705
(lp4706
S'8.00%'
p4707
aS'Tulare'
p4708
asS'belmont'
p4709
(lp4710
S'8.50%'
p4711
aS'San Mateo'
p4712
asS'camp kaweah'
p4713
(lp4714
S'8.00%'
p4715
aS'Tulare'
p4716
asS'rheem valley'
p4717
(lp4718
S'8.50%'
p4719
aS'Contra Costa'
p4720
asS'ignacio'
p4721
(lp4722
S'8.25%'
p4723
aS'Marin'
p4724
asS'stevenson ranch'
p4725
(lp4726
S'9.00%'
p4727
aS'Los Angeles'
p4728
asS'snelling'
p4729
(lp4730
S'7.50%'
p4731
aS'Merced'
p4732
asS'ruth'
p4733
(lp4734
S'7.50%'
p4735
aS'Trinity'
p4736
asS'dobbins'
p4737
(lp4738
S'7.50%'
p4739
aS'Yuba'
p4740
asS'selma'
p4741
(lp4742
S'8.73%'
p4743
aS'Fresno(SLMA)'
p4744
asS'orangevale'
p4745
(lp4746
S'8.00%'
p4747
aS'Sacramento'
p4748
asS'big pine'
p4749
(lp4750
S'8.00%'
p4751
aS'Inyo'
p4752
asS'port costa'
p4753
(lp4754
S'8.50%'
p4755
aS'Contra Costa'
p4756
asS'palo alto'
p4757
(lp4758
S'8.50%'
p4759
aS'Santa Clara'
p4760
asS'bartlett'
p4761
(lp4762
S'8.00%'
p4763
aS'Inyo'
p4764
asS'olivehurst'
p4765
(lp4766
S'7.50%'
p4767
aS'Yuba'
p4768
asS'redlands'
p4769
(lp4770
S'8.00%'
p4771
aS'San Bernardino'
p4772
asS'laguna hills'
p4773
(lp4774
S'8.00%'
p4775
aS'Orange'
p4776
asS'campo seco'
p4777
(lp4778
S'7.50%'
p4779
aS'Calaveras'
p4780
asS'cedar'
p4781
(lp4782
S'9.00%'
p4783
aS'Los Angeles'
p4784
asS'martell'
p4785
(lp4786
S'8.00%'
p4787
aS'Amador'
p4788
asS'clearlake highlands'
p4789
(lp4790
S'7.50%'
p4791
aS'Lake'
p4792
asS'fernbridge'
p4793
(lp4794
S'7.50%'
p4795
aS'Humboldt'
p4796
asS'french gulch'
p4797
(lp4798
S'7.50%'
p4799
aS'Shasta'
p4800
asS'rocklin'
p4801
(lp4802
S'7.50%'
p4803
aS'Placer'
p4804
asS'hercules'
p4805
(lp4806
S'8.50%'
p4807
aS'Contra Costa'
p4808
asS'el portal'
p4809
(lp4810
S'8.00%'
p4811
aS'Mariposa'
p4812
asS'redwood city'
p4813
(lp4814
S'8.50%'
p4815
aS'San Mateo'
p4816
asS'college grove center'
p4817
(lp4818
S'8.00%'
p4819
aS'San Diego'
p4820
asS'witter springs'
p4821
(lp4822
S'7.50%'
p4823
aS'Lake'
p4824
asS'clarksburg'
p4825
(lp4826
S'7.50%'
p4827
aS'Yolo'
p4828
asS'dixon'
p4829
(lp4830
S'7.63%'
p4831
aS'Solano'
p4832
asS'homeland'
p4833
(lp4834
S'8.00%'
p4835
aS'Riverside'
p4836
asS'catheys valley'
p4837
(lp4838
S'8.00%'
p4839
aS'Mariposa'
p4840
asS'dutch flat'
p4841
(lp4842
S'7.50%'
p4843
aS'Placer'
p4844
asS'china lake nwc'
p4845
(lp4846
S'7.50%'
p4847
aS'Kern'
p4848
asS'vallecito'
p4849
(lp4850
S'7.50%'
p4851
aS'Calaveras'
p4852
asS'garden grove'
p4853
(lp4854
S'8.00%'
p4855
aS'Orange'
p4856
asS'fremont'
p4857
(lp4858
S'9.00%'
p4859
aS'Alameda'
p4860
asS'keeler'
p4861
(lp4862
S'8.00%'
p4863
aS'Inyo'
p4864
asS'lathrop'
p4865
(lp4866
S'8.00%'
p4867
aS'San Joaquin'
p4868
asS'blairsden'
p4869
(lp4870
S'7.50%'
p4871
aS'Plumas'
p4872
asS'coalinga'
p4873
(lp4874
S'8.23%'
p4875
aS'Fresno'
p4876
asS'bolsa'
p4877
(lp4878
S'8.00%'
p4879
aS'Orange'
p4880
asS'simi valley'
p4881
(lp4882
S'7.50%'
p4883
aS'Ventura'
p4884
asS'coulterville'
p4885
(lp4886
S'8.00%'
p4887
aS'Mariposa'
p4888
asS'carmel rancho'
p4889
(lp4890
S'7.50%'
p4891
aS'Monterey'
p4892
asS'daggett'
p4893
(lp4894
S'8.00%'
p4895
aS'San Bernardino'
p4896
asS'yolo'
p4897
(lp4898
S'7.50%'
p4899
aS'Yolo'
p4900
asS'mar vista'
p4901
(lp4902
S'9.00%'
p4903
aS'Los Angeles'
p4904
asS'mooney'
p4905
(lp4906
S'8.00%'
p4907
aS'Tulare'
p4908
asS'valinda'
p4909
(lp4910
S'9.00%'
p4911
aS'Los Angeles'
p4912
asS'rosamond'
p4913
(lp4914
S'7.50%'
p4915
aS'Kern'
p4916
asS'pala'
p4917
(lp4918
S'8.00%'
p4919
aS'San Diego'
p4920
asS'coso junction'
p4921
(lp4922
S'8.00%'
p4923
aS'Inyo'
p4924
asS'pacific palisades'
p4925
(lp4926
S'9.00%'
p4927
aS'Los Angeles'
p4928
asS'el dorado hills'
p4929
(lp4930
S'7.50%'
p4931
aS'El Dorado'
p4932
asS'atascadero'
p4933
(lp4934
S'7.50%'
p4935
aS'San Luis Obispo'
p4936
asS'california city'
p4937
(lp4938
S'7.50%'
p4939
aS'Kern'
p4940
asS'valley ford'
p4941
(lp4942
S'8.25%'
p4943
aS'Sonoma'
p4944
asS'newark'
p4945
(lp4946
S'9.00%'
p4947
aS'Alameda'
p4948
asS'windsor hills'
p4949
(lp4950
S'9.00%'
p4951
aS'Los Angeles'
p4952
asS'benicia'
p4953
(lp4954
S'7.63%'
p4955
aS'Solano'
p4956
asS'knights landing'
p4957
(lp4958
S'7.50%'
p4959
aS'Yolo'
p4960
asS'mount laguna'
p4961
(lp4962
S'8.00%'
p4963
aS'San Diego'
p4964
asS'kelsey'
p4965
(lp4966
S'7.50%'
p4967
aS'El Dorado'
p4968
asS'nuevo'
p4969
(lp4970
S'8.00%'
p4971
aS'Riverside'
p4972
asS'solana beach'
p4973
(lp4974
S'8.00%'
p4975
aS'San Diego'
p4976
asS'orcutt'
p4977
(lp4978
S'8.00%'
p4979
aS'Santa Barbara'
p4980
asS'ladera'
p4981
(lp4982
S'8.50%'
p4983
aS'San Mateo'
p4984
asS'johnstown'
p4985
(lp4986
S'8.00%'
p4987
aS'San Diego'
p4988
asS'millbrae'
p4989
(lp4990
S'8.50%'
p4991
aS'San Mateo'
p4992
asS'culver city'
p4993
(lp4994
S'9.00%'
p4995
aS'Los Angeles'
p4996
asS'castroville'
p4997
(lp4998
S'7.50%'
p4999
aS'Monterey'
p5000
asS'vernalis'
p5001
(lp5002
S'8.00%'
p5003
aS'San Joaquin'
p5004
asS'capitola'
p5005
(lp5006
S'8.50%'
p5007
aS'Santa Cruz(CPGT)'
p5008
asS'el cajon'
p5009
(lp5010
S'9.00%'
p5011
aS'San Diego(ECGF)'
p5012
asS'rio oso'
p5013
(lp5014
S'7.50%'
p5015
aS'Sutter'
p5016
asS'knightsen'
p5017
(lp5018
S'8.50%'
p5019
aS'Contra Costa'
p5020
asS'crescent city'
p5021
(lp5022
S'7.50%'
p5023
aS'Del Norte'
p5024
asS'greenfield'
p5025
(lp5026
S'7.50%'
p5027
aS'Monterey'
p5028
asS'athens'
p5029
(lp5030
S'9.00%'
p5031
aS'Los Angeles'
p5032
asS'martinez'
p5033
(lp5034
S'8.50%'
p5035
aS'Contra Costa'
p5036
asS'port hueneme'
p5037
(lp5038
S'8.00%'
p5039
aS'Ventura(PTHN)'
p5040
asS'shell beach'
p5041
(lp5042
S'8.00%'
p5043
aS'San Luis Obispo(SHLB)'
p5044
asS'camp roberts'
p5045
(lp5046
S'7.50%'
p5047
aS'Monterey'
p5048
asS'ontario'
p5049
(lp5050
S'8.00%'
p5051
aS'San Bernardino'
p5052
asS'los serranos'
p5053
(lp5054
S'8.00%'
p5055
aS'San Bernardino'
p5056
asS'castro valley'
p5057
(lp5058
S'9.00%'
p5059
aS'Alameda'
p5060
asS'murrieta'
p5061
(lp5062
S'8.00%'
p5063
aS'Riverside'
p5064
asS'la puente'
p5065
(lp5066
S'9.00%'
p5067
aS'Los Angeles'
p5068
asS'army terminal'
p5069
(lp5070
S'9.00%'
p5071
aS'Alameda'
p5072
asS'summit city'
p5073
(lp5074
S'7.50%'
p5075
aS'Shasta'
p5076
asS'la grange'
p5077
(lp5078
S'7.63%'
p5079
aS'Stanislaus'
p5080
asS'presidio of monterey'
p5081
(lp5082
S'7.50%'
p5083
aS'Monterey'
p5084
asS'taylorsville'
p5085
(lp5086
S'7.50%'
p5087
aS'Plumas'
p5088
asS'bradbury'
p5089
(lp5090
S'9.00%'
p5091
aS'Los Angeles'
p5092
asS'cudahy'
p5093
(lp5094
S'9.00%'
p5095
aS'Los Angeles'
p5096
asS'grass valley'
p5097
(lp5098
S'7.63%'
p5099
aS'Nevada'
p5100
asS'mineral'
p5101
(lp5102
S'7.50%'
p5103
aS'Tehama'
p5104
asS'kneeland'
p5105
(lp5106
S'7.50%'
p5107
aS'Humboldt'
p5108
asS'piru'
p5109
(lp5110
S'7.50%'
p5111
aS'Ventura'
p5112
asS'emerald hills'
p5113
(lp5114
S'8.50%'
p5115
aS'San Mateo'
p5116
asS'hyampom'
p5117
(lp5118
S'7.50%'
p5119
aS'Trinity'
p5120
asS'naval training center'
p5121
(lp5122
S'8.00%'
p5123
aS'San Diego'
p5124
asS'east highlands'
p5125
(lp5126
S'8.00%'
p5127
aS'San Bernardino'
p5128
asS'foothill ranch'
p5129
(lp5130
S'8.00%'
p5131
aS'Orange'
p5132
asS'denair'
p5133
(lp5134
S'7.63%'
p5135
aS'Stanislaus'
p5136
asS'orinda'
p5137
(lp5138
S'8.50%'
p5139
aS'Contra Costa'
p5140
asS'almondale'
p5141
(lp5142
S'9.00%'
p5143
aS'Los Angeles'
p5144
asS'huron'
p5145
(lp5146
S'8.23%'
p5147
aS'Fresno'
p5148
asS'rainbow'
p5149
(lp5150
S'8.00%'
p5151
aS'San Diego'
p5152
asS'aliso viejo'
p5153
(lp5154
S'8.00%'
p5155
aS'Orange'
p5156
asS'edwards'
p5157
(lp5158
S'7.50%'
p5159
aS'Kern'
p5160
asS'marine corps'
p5161
(lp5162
S'8.00%'
p5163
aS'San Bernardino'
p5164
asS'oak view'
p5165
(lp5166
S'7.50%'
p5167
aS'Ventura'
p5168
asS'los padres'
p5169
(lp5170
S'7.50%'
p5171
aS'San Luis Obispo'
p5172
asS'rolling hills'
p5173
(lp5174
S'9.00%'
p5175
aS'Los Angeles'
p5176
asS'mammoth lakes'
p5177
(lp5178
S'8.00%'
p5179
aS'Mono(MLPR)'
p5180
asS'grand terrace'
p5181
(lp5182
S'8.00%'
p5183
aS'San Bernardino'
p5184
asS'poway'
p5185
(lp5186
S'8.00%'
p5187
aS'San Diego'
p5188
asS'san clemente'
p5189
(lp5190
S'8.00%'
p5191
aS'Orange'
p5192
asS'boonville'
p5193
(lp5194
S'7.50%'
p5195
aS'Mendocino'
p5196
asS'lucia'
p5197
(lp5198
S'7.50%'
p5199
aS'Monterey'
p5200
asS'rancho bernardo'
p5201
(lp5202
S'8.00%'
p5203
aS'San Diego'
p5204
asS'silverado canyon'
p5205
(lp5206
S'8.00%'
p5207
aS'Orange'
p5208
asS'lang'
p5209
(lp5210
S'9.00%'
p5211
aS'Los Angeles'
p5212
asS'city of industry'
p5213
(lp5214
S'9.00%'
p5215
aS'Los Angeles'
p5216
asS'summit'
p5217
(lp5218
S'8.00%'
p5219
aS'San Bernardino'
p5220
asS'lafayette'
p5221
(lp5222
S'8.50%'
p5223
aS'Contra Costa'
p5224
asS'san benito'
p5225
(lp5226
S'7.50%'
p5227
aS'San Benito'
p5228
asS'cantua creek'
p5229
(lp5230
S'8.23%'
p5231
aS'Fresno'
p5232
asS'gold run'
p5233
(lp5234
S'7.50%'
p5235
aS'Placer'
p5236
asS'gold river'
p5237
(lp5238
S'8.00%'
p5239
aS'Sacramento'
p5240
asS'big sur'
p5241
(lp5242
S'7.50%'
p5243
aS'Monterey'
p5244
asS'albion'
p5245
(lp5246
S'7.50%'
p5247
aS'Mendocino'
p5248
asS'east los angeles'
p5249
(lp5250
S'9.00%'
p5251
aS'Los Angeles'
p5252
asS'sonoma'
p5253
(lp5254
S'8.25%'
p5255
aS'Sonoma'
p5256
asS'groveland'
p5257
(lp5258
S'7.50%'
p5259
aS'Tuolumne'
p5260
asS'merced'
p5261
(lp5262
S'8.00%'
p5263
aS'Merced(MRCD)'
p5264
asS'san simeon'
p5265
(lp5266
S'7.50%'
p5267
aS'San Luis Obispo'
p5268
asS'westwood'
p5269
(lp5270
S'9.00%'
p5271
aS'Los Angeles'
p5272
asS'soda springs'
p5273
(lp5274
S'7.63%'
p5275
aS'Nevada'
p5276
asS'del mar'
p5277
(lp5278
S'8.00%'
p5279
aS'San Diego'
p5280
asS'mountain ranch'
p5281
(lp5282
S'7.50%'
p5283
aS'Calaveras'
p5284
asS'blue lake'
p5285
(lp5286
S'7.50%'
p5287
aS'Humboldt'
p5288
asS'amargosa'
p5289
(lp5290
S'8.00%'
p5291
aS'Inyo'
p5292
asS'big basin'
p5293
(lp5294
S'8.25%'
p5295
aS'Santa Cruz'
p5296
asS'east lynwood'
p5297
(lp5298
S'9.00%'
p5299
aS'Los Angeles'
p5300
asS'waterford'
p5301
(lp5302
S'7.63%'
p5303
aS'Stanislaus'
p5304
asS'bodfish'
p5305
(lp5306
S'7.50%'
p5307
aS'Kern'
p5308
asS'toms place'
p5309
(lp5310
S'7.50%'
p5311
aS'Mono'
p5312
asS'morro plaza'
p5313
(lp5314
S'7.50%'
p5315
aS'San Luis Obispo'
p5316
asS'menifee'
p5317
(lp5318
S'8.00%'
p5319
aS'Riverside'
p5320
asS'dunlap'
p5321
(lp5322
S'8.23%'
p5323
aS'Fresno'
p5324
asS'avalon'
p5325
(lp5326
S'9.50%'
p5327
aS'Los Angeles(AMHC)'
p5328
asS'rancho park'
p5329
(lp5330
S'9.00%'
p5331
aS'Los Angeles'
p5332
asS'dardanelle'
p5333
(lp5334
S'7.50%'
p5335
aS'Tuolumne'
p5336
asS'nipton'
p5337
(lp5338
S'8.00%'
p5339
aS'San Bernardino'
p5340
asS'san quentin'
p5341
(lp5342
S'8.25%'
p5343
aS'Marin'
p5344
asS'rimforest'
p5345
(lp5346
S'8.00%'
p5347
aS'San Bernardino'
p5348
asS'avila beach'
p5349
(lp5350
S'7.50%'
p5351
aS'San Luis Obispo'
p5352
asS'california hot springs'
p5353
(lp5354
S'8.00%'
p5355
aS'Tulare'
p5356
asS'keene'
p5357
(lp5358
S'7.50%'
p5359
aS'Kern'
p5360
asS'sand city'
p5361
(lp5362
S'8.00%'
p5363
aS'Monterey(SAND)'
p5364
asS'rutherford'
p5365
(lp5366
S'8.00%'
p5367
aS'Napa'
p5368
asS'sultana'
p5369
(lp5370
S'8.00%'
p5371
aS'Tulare'
p5372
asS'granite bay'
p5373
(lp5374
S'7.50%'
p5375
aS'Placer'
p5376
asS'victor'
p5377
(lp5378
S'8.00%'
p5379
aS'San Joaquin'
p5380
asS'edison'
p5381
(lp5382
S'7.50%'
p5383
aS'Kern'
p5384
asS'portola'
p5385
(lp5386
S'7.50%'
p5387
aS'Plumas'
p5388
asS'farmersville'
p5389
(lp5390
S'8.50%'
p5391
aS'Tulare(FMGT)'
p5392
asS'green valley lake'
p5393
(lp5394
S'8.00%'
p5395
aS'San Bernardino'
p5396
asS'richmond'
p5397
(lp5398
S'9.00%'
p5399
aS'Contra Costa(RMGT)'
p5400
asS'hopland'
p5401
(lp5402
S'7.50%'
p5403
aS'Mendocino'
p5404
asS'happy camp'
p5405
(lp5406
S'7.50%'
p5407
aS'Siskiyou'
p5408
asS'hornbrook'
p5409
(lp5410
S'7.50%'
p5411
aS'Siskiyou'
p5412
asS'corralitos'
p5413
(lp5414
S'8.25%'
p5415
aS'Santa Cruz'
p5416
asS'leucadia'
p5417
(lp5418
S'8.00%'
p5419
aS'San Diego'
p5420
asS'midpines'
p5421
(lp5422
S'8.00%'
p5423
aS'Mariposa'
p5424
asS'alhambra'
p5425
(lp5426
S'9.00%'
p5427
aS'Los Angeles'
p5428
asS'suisun city'
p5429
(lp5430
S'7.63%'
p5431
aS'Solano'
p5432
asS'val verde park'
p5433
(lp5434
S'9.00%'
p5435
aS'Los Angeles'
p5436
asS'bakersfield'
p5437
(lp5438
S'7.50%'
p5439
aS'Kern'
p5440
asS'phillipsville'
p5441
(lp5442
S'7.50%'
p5443
aS'Humboldt'
p5444
asS'litchfield'
p5445
(lp5446
S'7.50%'
p5447
aS'Lassen'
p5448
asS'eastside'
p5449
(lp5450
S'8.00%'
p5451
aS'San Bernardino'
p5452
asS'aromas'
p5453
(lp5454
S'7.50%'
p5455
aS'Monterey'
p5456
asS'ashland'
p5457
(lp5458
S'9.00%'
p5459
aS'Alameda'
p5460
asS'holmes'
p5461
(lp5462
S'7.50%'
p5463
aS'Humboldt'
p5464
asS'selby'
p5465
(lp5466
S'8.50%'
p5467
aS'Contra Costa'
p5468
asS'willow creek'
p5469
(lp5470
S'7.50%'
p5471
aS'Humboldt'
p5472
asS'lee vining'
p5473
(lp5474
S'7.50%'
p5475
aS'Mono'
p5476
asS'gustine'
p5477
(lp5478
S'8.00%'
p5479
aS'Merced(GSTG)'
p5480
asS'delano'
p5481
(lp5482
S'8.50%'
p5483
aS'Kern(SLNO)'
p5484
asS'olivenhain'
p5485
(lp5486
S'8.00%'
p5487
aS'San Diego'
p5488
asS'san francisco'
p5489
(lp5490
S'8.75%'
p5491
aS'San Francisco'
p5492
asS'stanislaus'
p5493
(lp5494
S'7.50%'
p5495
aS'Tuolumne'
p5496
asS'raisin city'
p5497
(lp5498
S'8.23%'
p5499
aS'Fresno'
p5500
asS'lake city'
p5501
(lp5502
S'7.63%'
p5503
aS'Nevada'
p5504
asS'terra bella'
p5505
(lp5506
S'8.00%'
p5507
aS'Tulare'
p5508
asS'markleeville'
p5509
(lp5510
S'7.50%'
p5511
aS'Alpine'
p5512
asS'edgewood'
p5513
(lp5514
S'7.50%'
p5515
aS'Siskiyou'
p5516
asS'porter ranch'
p5517
(lp5518
S'9.00%'
p5519
aS'Los Angeles'
p5520
asS'south dos palos'
p5521
(lp5522
S'7.50%'
p5523
aS'Merced'
p5524
asS'bridgeville'
p5525
(lp5526
S'7.50%'
p5527
aS'Humboldt'
p5528
asS'oak run'
p5529
(lp5530
S'7.50%'
p5531
aS'Shasta'
p5532
asS'montecito'
p5533
(lp5534
S'8.00%'
p5535
aS'Santa Barbara'
p5536
asS'zamora'
p5537
(lp5538
S'7.50%'
p5539
aS'Yolo'
p5540
asS'keswick'
p5541
(lp5542
S'7.50%'
p5543
aS'Shasta'
p5544
asS'woodlake'
p5545
(lp5546
S'8.00%'
p5547
aS'Tulare'
p5548
asS'darwin'
p5549
(lp5550
S'8.00%'
p5551
aS'Inyo'
p5552
asS'challenge'
p5553
(lp5554
S'7.50%'
p5555
aS'Yuba'
p5556
asS'dana point'
p5557
(lp5558
S'8.00%'
p5559
aS'Orange'
p5560
asS'sutter'
p5561
(lp5562
S'7.50%'
p5563
aS'Sutter'
p5564
asS'biola college'
p5565
(lp5566
S'9.00%'
p5567
aS'Los Angeles'
p5568
asS'lockwood'
p5569
(lp5570
S'7.50%'
p5571
aS'Monterey'
p5572
asS'valley village'
p5573
(lp5574
S'9.00%'
p5575
aS'Los Angeles'
p5576
asS'requa'
p5577
(lp5578
S'7.50%'
p5579
aS'Del Norte'
p5580
asS'mount shasta'
p5581
(lp5582
S'7.75%'
p5583
aS'Siskiyou'
p5584
asS'palo cedro'
p5585
(lp5586
S'7.50%'
p5587
aS'Shasta'
p5588
asS'hickman'
p5589
(lp5590
S'7.63%'
p5591
aS'Stanislaus'
p5592
asS'wilseyville'
p5593
(lp5594
S'7.50%'
p5595
aS'Calaveras'
p5596
asS'parker dam'
p5597
(lp5598
S'8.00%'
p5599
aS'San Bernardino'
p5600
asS'san fernando'
p5601
(lp5602
S'9.00%'
p5603
aS'Los Angeles'
p5604
asS'el granada'
p5605
(lp5606
S'8.50%'
p5607
aS'San Mateo'
p5608
asS'lompoc'
p5609
(lp5610
S'8.00%'
p5611
aS'Santa Barbara'
p5612
asS'pomona'
p5613
(lp5614
S'9.00%'
p5615
aS'Los Angeles'
p5616
asS'lake elsinore'
p5617
(lp5618
S'8.00%'
p5619
aS'Riverside'
p5620
asS'aguanga'
p5621
(lp5622
S'8.00%'
p5623
aS'Riverside'
p5624
asS'south gate'
p5625
(lp5626
S'10.00%'
p5627
aS'Los Angeles(SGTE)'
p5628
asS'bolinas'
p5629
(lp5630
S'8.25%'
p5631
aS'Marin'
p5632
asS'hazard'
p5633
(lp5634
S'9.00%'
p5635
aS'Los Angeles'
p5636
asS'hemet'
p5637
(lp5638
S'8.00%'
p5639
aS'Riverside'
p5640
asS'morro bay'
p5641
(lp5642
S'8.00%'
p5643
aS'San Luis Obispo(MRBY)'
p5644
asS'emigrant gap'
p5645
(lp5646
S'7.50%'
p5647
aS'Placer'
p5648
asS'woodland hills'
p5649
(lp5650
S'9.00%'
p5651
aS'Los Angeles'
p5652
asS'arbuckle'
p5653
(lp5654
S'7.50%'
p5655
aS'Colusa'
p5656
asS'goshen'
p5657
(lp5658
S'8.00%'
p5659
aS'Tulare'
p5660
asS'antelope'
p5661
(lp5662
S'8.00%'
p5663
aS'Sacramento'
p5664
asS'fresno'
p5665
(lp5666
S'8.23%'
p5667
aS'Fresno'
p5668
asS'white pines'
p5669
(lp5670
S'7.50%'
p5671
aS'Calaveras'
p5672
asS'volta'
p5673
(lp5674
S'7.50%'
p5675
aS'Merced'
p5676
asS'havasu lake'
p5677
(lp5678
S'8.00%'
p5679
aS'San Bernardino'
p5680
asS'badger'
p5681
(lp5682
S'8.00%'
p5683
aS'Tulare'
p5684
asS'fort irwin'
p5685
(lp5686
S'8.00%'
p5687
aS'San Bernardino'
p5688
asS'union city'
p5689
(lp5690
S'9.50%'
p5691
aS'Alameda'
p5692
asS'walnut'
p5693
(lp5694
S'9.00%'
p5695
aS'Los Angeles'
p5696
asS'orange'
p5697
(lp5698
S'8.00%'
p5699
aS'Orange'
p5700
asS'deer park'
p5701
(lp5702
S'8.00%'
p5703
aS'Napa'
p5704
asS'buena park'
p5705
(lp5706
S'8.00%'
p5707
aS'Orange'
p5708
asS'cedar crest'
p5709
(lp5710
S'8.23%'
p5711
aS'Fresno'
p5712
asS'nubieber'
p5713
(lp5714
S'7.50%'
p5715
aS'Lassen'
p5716
asS'richvale'
p5717
(lp5718
S'7.50%'
p5719
aS'Butte'
p5720
asS'fort bidwell'
p5721
(lp5722
S'7.50%'
p5723
aS'Modoc'
p5724
asS'solemint'
p5725
(lp5726
S'9.00%'
p5727
aS'Los Angeles'
p5728
asS'base line'
p5729
(lp5730
S'8.00%'
p5731
aS'San Bernardino'
p5732
asS'camino'
p5733
(lp5734
S'7.50%'
p5735
aS'El Dorado'
p5736
asS'newman'
p5737
(lp5738
S'7.63%'
p5739
aS'Stanislaus'
p5740
asS'loma linda'
p5741
(lp5742
S'8.00%'
p5743
aS'San Bernardino'
p5744
asS'river pines'
p5745
(lp5746
S'8.00%'
p5747
aS'Amador'
p5748
asS'agua caliente springs'
p5749
(lp5750
S'8.00%'
p5751
aS'San Diego'
p5752
asS'la canada- flintridge'
p5753
(lp5754
S'9.00%'
p5755
aS'Los Angeles'
p5756
asS'university'
p5757
(lp5758
S'8.00%'
p5759
aS'Santa Barbara'
p5760
asS'duncans mills'
p5761
(lp5762
S'8.25%'
p5763
aS'Sonoma'
p5764
asS'westhaven'
p5765
(lp5766
S'7.50%'
p5767
aS'Humboldt'
p5768
asS'stratford'
p5769
(lp5770
S'7.50%'
p5771
aS'Kings'
p5772
asS'heyer'
p5773
(lp5774
S'9.00%'
p5775
aS'Alameda'
p5776
asS'rio bravo'
p5777
(lp5778
S'7.50%'
p5779
aS'Kern'
p5780
asS'baxter'
p5781
(lp5782
S'7.50%'
p5783
aS'Placer'
p5784
asS'covina'
p5785
(lp5786
S'9.00%'
p5787
aS'Los Angeles'
p5788
asS'cayucos'
p5789
(lp5790
S'7.50%'
p5791
aS'San Luis Obispo'
p5792
asS'albany'
p5793
(lp5794
S'9.00%'
p5795
aS'Alameda'
p5796
asS'fallbrook'
p5797
(lp5798
S'8.00%'
p5799
aS'San Diego'
p5800
asS'douglas flat'
p5801
(lp5802
S'7.50%'
p5803
aS'Calaveras'
p5804
asS'huntington'
p5805
(lp5806
S'8.00%'
p5807
aS'Orange'
p5808
asS'elmwood'
p5809
(lp5810
S'9.00%'
p5811
aS'Alameda'
p5812
asS'dos palos'
p5813
(lp5814
S'7.50%'
p5815
aS'Merced'
p5816
asS'manteca'
p5817
(lp5818
S'8.50%'
p5819
aS'San Joaquin(MTPS)'
p5820
asS'kerman'
p5821
(lp5822
S'8.23%'
p5823
aS'Fresno'
p5824
asS'nipomo'
p5825
(lp5826
S'7.50%'
p5827
aS'San Luis Obispo'
p5828
asS'prather'
p5829
(lp5830
S'8.23%'
p5831
aS'Fresno'
p5832
asS'represa'
p5833
(lp5834
S'8.00%'
p5835
aS'Sacramento'
p5836
asS'san dimas'
p5837
(lp5838
S'9.00%'
p5839
aS'Los Angeles'
p5840
asS'maclay'
p5841
(lp5842
S'9.00%'
p5843
aS'Los Angeles'
p5844
asS'buttonwillow'
p5845
(lp5846
S'7.50%'
p5847
aS'Kern'
p5848
asS'monterey bay academy'
p5849
(lp5850
S'8.25%'
p5851
aS'Santa Cruz'
p5852
asS'cardiff by the sea'
p5853
(lp5854
S'8.00%'
p5855
aS'San Diego'
p5856
asS'marina del rey'
p5857
(lp5858
S'9.00%'
p5859
aS'Los Angeles'
p5860
asS'bouquet canyon'
p5861
(lp5862
S'9.00%'
p5863
aS'Los Angeles'
p5864
asS'del kern'
p5865
(lp5866
S'7.50%'
p5867
aS'Kern'
p5868
asS'santa rosa valley'
p5869
(lp5870
S'7.50%'
p5871
aS'Ventura'
p5872
asS'creston'
p5873
(lp5874
S'7.50%'
p5875
aS'San Luis Obispo'
p5876
asS'richardson grove'
p5877
(lp5878
S'7.50%'
p5879
aS'Humboldt'
p5880
asS'cadiz'
p5881
(lp5882
S'8.00%'
p5883
aS'San Bernardino'
p5884
asS'earp'
p5885
(lp5886
S'8.00%'
p5887
aS'San Bernardino'
p5888
asS'davis'
p5889
(lp5890
S'8.00%'
p5891
aS'Yolo(DAGT)'
p5892
asS'hollister'
p5893
(lp5894
S'8.50%'
p5895
aS'San Benito(HLST)'
p5896
asS'lake san marcos'
p5897
(lp5898
S'8.00%'
p5899
aS'San Diego'
p5900
asS'cholame'
p5901
(lp5902
S'7.50%'
p5903
aS'San Luis Obispo'
p5904
asS'mineral king'
p5905
(lp5906
S'8.00%'
p5907
aS'Tulare'
p5908
asS'bijou'
p5909
(lp5910
S'7.50%'
p5911
aS'El Dorado'
p5912
asS'monte rio'
p5913
(lp5914
S'8.25%'
p5915
aS'Sonoma'
p5916
asS'cameron park'
p5917
(lp5918
S'7.50%'
p5919
aS'El Dorado'
p5920
asS'lakeport'
p5921
(lp5922
S'8.00%'
p5923
aS'Lake(LPGT)'
p5924
asS'el toro m.c.a.s.'
p5925
(lp5926
S'8.00%'
p5927
aS'Orange'
p5928
asS'capay'
p5929
(lp5930
S'7.50%'
p5931
aS'Yolo'
p5932
asS'camp curry'
p5933
(lp5934
S'8.00%'
p5935
aS'Mariposa'
p5936
asS'sharpe army depot'
p5937
(lp5938
S'8.00%'
p5939
aS'San Joaquin'
p5940
asS'georgetown'
p5941
(lp5942
S'7.50%'
p5943
aS'El Dorado'
p5944
asS'malibu'
p5945
(lp5946
S'9.00%'
p5947
aS'Los Angeles'
p5948
asS'redondo beach'
p5949
(lp5950
S'9.00%'
p5951
aS'Los Angeles'
p5952
asS'lamont'
p5953
(lp5954
S'7.50%'
p5955
aS'Kern'
p5956
asS'bieber'
p5957
(lp5958
S'7.50%'
p5959
aS'Lassen'
p5960
asS'soulsbyville'
p5961
(lp5962
S'7.50%'
p5963
aS'Tuolumne'
p5964
asS'ballard'
p5965
(lp5966
S'8.00%'
p5967
aS'Santa Barbara'
p5968
asS'five points'
p5969
(lp5970
S'8.23%'
p5971
aS'Fresno'
p5972
asS'anaheim'
p5973
(lp5974
S'8.00%'
p5975
aS'Orange'
p5976
asS'halcyon'
p5977
(lp5978
S'7.50%'
p5979
aS'San Luis Obispo'
p5980
asS'mojave'
p5981
(lp5982
S'7.50%'
p5983
aS'Kern'
p5984
asS'julian'
p5985
(lp5986
S'8.00%'
p5987
aS'San Diego'
p5988
asS'morongo valley'
p5989
(lp5990
S'8.00%'
p5991
aS'San Bernardino'
p5992
asS'clio'
p5993
(lp5994
S'7.50%'
p5995
aS'Plumas'
p5996
asS'warner springs'
p5997
(lp5998
S'8.00%'
p5999
aS'San Diego'
p6000
asS'biggs'
p6001
(lp6002
S'7.50%'
p6003
aS'Butte'
p6004
asS'shoshone'
p6005
(lp6006
S'8.00%'
p6007
aS'Inyo'
p6008
asS'echo lake'
p6009
(lp6010
S'7.50%'
p6011
aS'El Dorado'
p6012
asS'talmage'
p6013
(lp6014
S'7.50%'
p6015
aS'Mendocino'
p6016
asS'fancher'
p6017
(lp6018
S'8.23%'
p6019
aS'Fresno'
p6020
asS'linda'
p6021
(lp6022
S'7.50%'
p6023
aS'Yuba'
p6024
asS'east irvine'
p6025
(lp6026
S'8.00%'
p6027
aS'Orange'
p6028
asS'north hollywood'
p6029
(lp6030
S'9.00%'
p6031
aS'Los Angeles'
p6032
asS'alton'
p6033
(lp6034
S'7.50%'
p6035
aS'Humboldt'
p6036
asS'claremont'
p6037
(lp6038
S'9.00%'
p6039
aS'Los Angeles'
p6040
asS'pleasant hill'
p6041
(lp6042
S'8.50%'
p6043
aS'Contra Costa'
p6044
asS'yucca valley'
p6045
(lp6046
S'8.00%'
p6047
aS'San Bernardino'
p6048
asS'santa ynez'
p6049
(lp6050
S'8.00%'
p6051
aS'Santa Barbara'
p6052
asS'irwindale'
p6053
(lp6054
S'9.00%'
p6055
aS'Los Angeles'
p6056
asS'santa clarita'
p6057
(lp6058
S'9.00%'
p6059
aS'Los Angeles'
p6060
asS'cima'
p6061
(lp6062
S'8.00%'
p6063
aS'San Bernardino'
p6064
asS'ivanpah'
p6065
(lp6066
S'8.00%'
p6067
aS'San Bernardino'
p6068
asS'hanford'
p6069
(lp6070
S'7.50%'
p6071
aS'Kings'
p6072
asS'clearlake'
p6073
(lp6074
S'8.00%'
p6075
aS'Lake(CLPS)'
p6076
asS'brea'
p6077
(lp6078
S'8.00%'
p6079
aS'Orange'
p6080
asS'lake arrowhead'
p6081
(lp6082
S'8.00%'
p6083
aS'San Bernardino'
p6084
asS'drytown'
p6085
(lp6086
S'8.00%'
p6087
aS'Amador'
p6088
asS'los angeles'
p6089
(lp6090
S'9.00%'
p6091
aS'Los Angeles'
p6092
asS'fowler'
p6093
(lp6094
S'8.23%'
p6095
aS'Fresno'
p6096
asS'glennville'
p6097
(lp6098
S'7.50%'
p6099
aS'Kern'
p6100
asS'smartsville'
p6101
(lp6102
S'7.50%'
p6103
aS'Yuba'
p6104
asS'calipatria'
p6105
(lp6106
S'8.00%'
p6107
aS'Imperial'
p6108
asS'dulzura'
p6109
(lp6110
S'8.00%'
p6111
aS'San Diego'
p6112
asS'esparto'
p6113
(lp6114
S'7.50%'
p6115
aS'Yolo'
p6116
asS'steele park'
p6117
(lp6118
S'8.00%'
p6119
aS'Napa'
p6120
asS'los nietos'
p6121
(lp6122
S'9.00%'
p6123
aS'Los Angeles'
p6124
asS'sequoia national park'
p6125
(lp6126
S'8.00%'
p6127
aS'Tulare'
p6128
asS'redway'
p6129
(lp6130
S'7.50%'
p6131
aS'Humboldt'
p6132
asS'rio dell'
p6133
(lp6134
S'7.50%'
p6135
aS'Humboldt'
p6136
asS'blossom hill'
p6137
(lp6138
S'8.50%'
p6139
aS'Santa Clara'
p6140
asS'bombay beach'
p6141
(lp6142
S'8.00%'
p6143
aS'Imperial'
p6144
asS'penn valley'
p6145
(lp6146
S'7.63%'
p6147
aS'Nevada'
p6148
asS'mountain pass'
p6149
(lp6150
S'8.00%'
p6151
aS'San Bernardino'
p6152
asS'cowan heights'
p6153
(lp6154
S'8.00%'
p6155
aS'Orange'
p6156
asS'grover beach'
p6157
(lp6158
S'8.00%'
p6159
aS'San Luis Obispo(GRBH)'
p6160
asS'almaden valley'
p6161
(lp6162
S'8.50%'
p6163
aS'Santa Clara'
p6164
asS'westmorland'
p6165
(lp6166
S'8.00%'
p6167
aS'Imperial'
p6168
asS'lebec'
p6169
(lp6170
S'7.50%'
p6171
aS'Kern'
p6172
asS'crows landing'
p6173
(lp6174
S'7.63%'
p6175
aS'Stanislaus'
p6176
asS'westchester'
p6177
(lp6178
S'9.00%'
p6179
aS'Los Angeles'
p6180
asS'bonsall'
p6181
(lp6182
S'8.00%'
p6183
aS'San Diego'
p6184
asS'mill valley'
p6185
(lp6186
S'8.25%'
p6187
aS'Marin'
p6188
asS'sisquoc'
p6189
(lp6190
S'8.00%'
p6191
aS'Santa Barbara'
p6192
asS'crest park'
p6193
(lp6194
S'8.00%'
p6195
aS'San Bernardino'
p6196
asS'navarro'
p6197
(lp6198
S'7.50%'
p6199
aS'Mendocino'
p6200
asS'topaz'
p6201
(lp6202
S'7.50%'
p6203
aS'Mono'
p6204
asS'ripley'
p6205
(lp6206
S'8.00%'
p6207
aS'Riverside'
p6208
asS'glendale'
p6209
(lp6210
S'9.00%'
p6211
aS'Los Angeles'
p6212
asS'lomita'
p6213
(lp6214
S'9.00%'
p6215
aS'Los Angeles'
p6216
asS'santa rosa'
p6217
(lp6218
S'8.75%'
p6219
aS'Sonoma(SRPS'
p6220
asS'richgrove'
p6221
(lp6222
S'8.00%'
p6223
aS'Tulare'
p6224
asS'los banos'
p6225
(lp6226
S'8.00%'
p6227
aS'Merced(LBPS)'
p6228
asS'whitmore'
p6229
(lp6230
S'7.50%'
p6231
aS'Shasta'
p6232
asS'homewood'
p6233
(lp6234
S'7.50%'
p6235
aS'Placer'
p6236
asS'shore acres'
p6237
(lp6238
S'8.50%'
p6239
aS'Contra Costa'
p6240
asS'brentwood'
p6241
(lp6242
S'9.00%'
p6243
aS'Los Angeles'
p6244
asS'blocksburg'
p6245
(lp6246
S'7.50%'
p6247
aS'Humboldt'
p6248
asS'hyde park'
p6249
(lp6250
S'9.00%'
p6251
aS'Los Angeles'
p6252
asS'shasta lake'
p6253
(lp6254
S'7.50%'
p6255
aS'Shasta'
p6256
asS'nicolaus'
p6257
(lp6258
S'7.50%'
p6259
aS'Sutter'
p6260
asS'mariposa'
p6261
(lp6262
S'8.00%'
p6263
aS'Mariposa'
p6264
asS'arrowhead highlands'
p6265
(lp6266
S'8.00%'
p6267
aS'San Bernardino'
p6268
asS'mentone'
p6269
(lp6270
S'8.00%'
p6271
aS'San Bernardino'
p6272
asS'oregon house'
p6273
(lp6274
S'7.50%'
p6275
aS'Yuba'
p6276
asS'highland'
p6277
(lp6278
S'8.00%'
p6279
aS'San Bernardino'
p6280
asS'hidden hills'
p6281
(lp6282
S'9.00%'
p6283
aS'Los Angeles'
p6284
asS'los osos'
p6285
(lp6286
S'7.50%'
p6287
aS'San Luis Obispo'
p6288
asS'rancho dominguez'
p6289
(lp6290
S'9.00%'
p6291
aS'Los Angeles'
p6292
asS'encinitas'
p6293
(lp6294
S'8.00%'
p6295
aS'San Diego'
p6296
asS'los olivos'
p6297
(lp6298
S'8.00%'
p6299
aS'Santa Barbara'
p6300
asS'pinon hills'
p6301
(lp6302
S'8.00%'
p6303
aS'San Bernardino'
p6304
asS'sanger'
p6305
(lp6306
S'8.98%'
p6307
aS'Fresno(SGPS)'
p6308
asS'oakland'
p6309
(lp6310
S'9.00%'
p6311
aS'Alameda'
p6312
asS'moonridge'
p6313
(lp6314
S'8.00%'
p6315
aS'San Bernardino'
p6316
asS'greenacres'
p6317
(lp6318
S'7.50%'
p6319
aS'Kern'
p6320
asS'lockeford'
p6321
(lp6322
S'8.00%'
p6323
aS'San Joaquin'
p6324
asS'midland'
p6325
(lp6326
S'8.00%'
p6327
aS'Riverside'
p6328
asS'hornitos'
p6329
(lp6330
S'8.00%'
p6331
aS'Mariposa'
p6332
asS'naples'
p6333
(lp6334
S'9.00%'
p6335
aS'Los Angeles'
p6336
asS'richfield'
p6337
(lp6338
S'7.50%'
p6339
aS'Tehama'
p6340
asS'plaster city'
p6341
(lp6342
S'8.00%'
p6343
aS'Imperial'
p6344
asS'lake hughes'
p6345
(lp6346
S'9.00%'
p6347
aS'Los Angeles'
p6348
asS'belvedere'
p6349
(lp6350
S'8.25%'
p6351
aS'Marin'
p6352
asS'smoke tree'
p6353
(lp6354
S'8.00%'
p6355
aS'San Bernardino'
p6356
asS'forest ranch'
p6357
(lp6358
S'7.50%'
p6359
aS'Butte'
p6360
asS'greenbrae'
p6361
(lp6362
S'8.25%'
p6363
aS'Marin'
p6364
asS'freeport'
p6365
(lp6366
S'8.00%'
p6367
aS'Sacramento'
p6368
asS'ballico'
p6369
(lp6370
S'7.50%'
p6371
aS'Merced'
p6372
asS'monrovia'
p6373
(lp6374
S'9.00%'
p6375
aS'Los Angeles'
p6376
asS'capistrano beach'
p6377
(lp6378
S'8.00%'
p6379
aS'Orange'
p6380
asS'lake isabella'
p6381
(lp6382
S'7.50%'
p6383
aS'Kern'
p6384
asS'burrel'
p6385
(lp6386
S'8.23%'
p6387
aS'Fresno'
p6388
asS'lakeside'
p6389
(lp6390
S'8.00%'
p6391
aS'San Diego'
p6392
asS'hillsdale'
p6393
(lp6394
S'8.75%'
p6395
aS'San Mateo(HLSD)'
p6396
asS'visalia'
p6397
(lp6398
S'8.25%'
p6399
aS'Tulare(VPST)'
p6400
asS'yountville'
p6401
(lp6402
S'8.00%'
p6403
aS'Napa'
p6404
asS'winnetka'
p6405
(lp6406
S'9.00%'
p6407
aS'Los Angeles'
p6408
asS'rubidoux'
p6409
(lp6410
S'8.00%'
p6411
aS'Riverside'
p6412
asS'tarzana'
p6413
(lp6414
S'9.00%'
p6415
aS'Los Angeles'
p6416
asS'jenner'
p6417
(lp6418
S'8.25%'
p6419
aS'Sonoma'
p6420
asS'bayside'
p6421
(lp6422
S'7.50%'
p6423
aS'Humboldt'
p6424
asS'moraga'
p6425
(lp6426
S'8.50%'
p6427
aS'Contra Costa'
p6428
asS'mcclellan'
p6429
(lp6430
S'8.00%'
p6431
aS'Sacramento'
p6432
asS'bishop'
p6433
(lp6434
S'8.00%'
p6435
aS'Inyo'
p6436
asS'kelseyville'
p6437
(lp6438
S'7.50%'
p6439
aS'Lake'
p6440
asS'santa cruz'
p6441
(lp6442
S'8.75%'
p6443
aS'Santa Cruz(STCZ)'
p6444
asS'berry creek'
p6445
(lp6446
S'7.50%'
p6447
aS'Butte'
p6448
asS'tollhouse'
p6449
(lp6450
S'8.23%'
p6451
aS'Fresno'
p6452
asS'horse creek'
p6453
(lp6454
S'7.50%'
p6455
aS'Siskiyou'
p6456
asS'meadow valley'
p6457
(lp6458
S'7.50%'
p6459
aS'Plumas'
p6460
asS'columbia'
p6461
(lp6462
S'7.50%'
p6463
aS'Tuolumne'
p6464
asS'raymond'
p6465
(lp6466
S'8.00%'
p6467
aS'Madera'
p6468
asS'idria'
p6469
(lp6470
S'7.50%'
p6471
aS'San Benito'
p6472
asS'oak park'
p6473
(lp6474
S'7.50%'
p6475
aS'Ventura'
p6476
asS'east palo alto'
p6477
(lp6478
S'8.50%'
p6479
aS'San Mateo'
p6480
asS'milpitas'
p6481
(lp6482
S'8.50%'
p6483
aS'Santa Clara'
p6484
asS'la crescenta'
p6485
(lp6486
S'9.00%'
p6487
aS'Los Angeles'
p6488
asS'malaga'
p6489
(lp6490
S'8.23%'
p6491
aS'Fresno'
p6492
asS'philo'
p6493
(lp6494
S'7.50%'
p6495
aS'Mendocino'
p6496
asS'sunnymead'
p6497
(lp6498
S'8.00%'
p6499
aS'Riverside'
p6500
asS'squaw valley'
p6501
(lp6502
S'8.23%'
p6503
aS'Fresno'
p6504
asS'fort ord'
p6505
(lp6506
S'7.50%'
p6507
aS'Monterey'
p6508
asS'reseda'
p6509
(lp6510
S'9.00%'
p6511
aS'Los Angeles'
p6512
asS'cupertino'
p6513
(lp6514
S'8.50%'
p6515
aS'Santa Clara'
p6516
asS'garden valley'
p6517
(lp6518
S'7.50%'
p6519
aS'El Dorado'
p6520
asS'seal beach'
p6521
(lp6522
S'8.00%'
p6523
aS'Orange'
p6524
asS'little lake'
p6525
(lp6526
S'8.00%'
p6527
aS'Inyo'
p6528
asS"o'neals"
p6529
(lp6530
S'8.00%'
p6531
aS'Madera'
p6532
asS'mint canyon'
p6533
(lp6534
S'9.00%'
p6535
aS'Los Angeles'
p6536
asS'bethel island'
p6537
(lp6538
S'8.50%'
p6539
aS'Contra Costa'
p6540
asS'ravendale'
p6541
(lp6542
S'7.50%'
p6543
aS'Lassen'
p6544
asS'otay'
p6545
(lp6546
S'8.00%'
p6547
aS'San Diego'
p6548
asS'winchester'
p6549
(lp6550
S'8.00%'
p6551
aS'Riverside'
p6552
asS'camp nelson'
p6553
(lp6554
S'8.00%'
p6555
aS'Tulare'
p6556
asS'oakhurst'
p6557
(lp6558
S'8.00%'
p6559
aS'Madera'
p6560
asS'gridley'
p6561
(lp6562
S'7.50%'
p6563
aS'Butte'
p6564
asS'mccloud'
p6565
(lp6566
S'7.50%'
p6567
aS'Siskiyou'
p6568
asS'universal city'
p6569
(lp6570
S'9.00%'
p6571
aS'Los Angeles'
p6572
asS'armona'
p6573
(lp6574
S'7.50%'
p6575
aS'Kings'
p6576
asS'glen ellen'
p6577
(lp6578
S'8.25%'
p6579
aS'Sonoma'
p6580
asS'riverside'
p6581
(lp6582
S'8.00%'
p6583
aS'Riverside'
p6584
asS'miramar'
p6585
(lp6586
S'8.00%'
p6587
aS'San Diego'
p6588
asS'doyle'
p6589
(lp6590
S'7.50%'
p6591
aS'Lassen'
p6592
asS'yorkville'
p6593
(lp6594
S'7.50%'
p6595
aS'Mendocino'
p6596
asS'south san francisco'
p6597
(lp6598
S'8.50%'
p6599
aS'San Mateo'
p6600
asS'east porterville'
p6601
(lp6602
S'8.00%'
p6603
aS'Tulare'
p6604
asS'montgomery creek'
p6605
(lp6606
S'7.50%'
p6607
aS'Shasta'
p6608
asS'lincoln'
p6609
(lp6610
S'7.50%'
p6611
aS'Placer'
p6612
asS'burson'
p6613
(lp6614
S'7.50%'
p6615
aS'Calaveras'
p6616
asS'pacheco'
p6617
(lp6618
S'8.50%'
p6619
aS'Contra Costa'
p6620
asS'joshua tree'
p6621
(lp6622
S'8.00%'
p6623
aS'San Bernardino'
p6624
asS'emeryville'
p6625
(lp6626
S'9.00%'
p6627
aS'Alameda'
p6628
asS'sun valley'
p6629
(lp6630
S'9.00%'
p6631
aS'Los Angeles'
p6632
asS'cutler'
p6633
(lp6634
S'8.00%'
p6635
aS'Tulare'
p6636
asS'chico'
p6637
(lp6638
S'7.50%'
p6639
aS'Butte'
p6640
asS'truckee'
p6641
(lp6642
S'8.13%'
p6643
aS'Nevada(TRSR)'
p6644
asS'yorba linda'
p6645
(lp6646
S'8.00%'
p6647
aS'Orange'
p6648
asS'clipper mills'
p6649
(lp6650
S'7.50%'
p6651
aS'Butte'
p6652
asS'woodville'
p6653
(lp6654
S'8.00%'
p6655
aS'Tulare'
p6656
asS'tagus ranch'
p6657
(lp6658
S'8.00%'
p6659
aS'Tulare'
p6660
asS'midway city'
p6661
(lp6662
S'8.00%'
p6663
aS'Orange'
p6664
asS'lakeview terrace'
p6665
(lp6666
S'9.00%'
p6667
aS'Los Angeles'
p6668
asS'oroville'
p6669
(lp6670
S'7.50%'
p6671
aS'Butte'
p6672
asS'janesville'
p6673
(lp6674
S'7.50%'
p6675
aS'Lassen'
p6676
asS'empire'
p6677
(lp6678
S'7.63%'
p6679
aS'Stanislaus'
p6680
asS'carlsbad'
p6681
(lp6682
S'8.00%'
p6683
aS'San Diego'
p6684
asS'rossmoor'
p6685
(lp6686
S'8.00%'
p6687
aS'Orange'
p6688
asS'miramonte'
p6689
(lp6690
S'8.23%'
p6691
aS'Fresno'
p6692
asS'lone pine'
p6693
(lp6694
S'8.00%'
p6695
aS'Inyo'
p6696
asS'floriston'
p6697
(lp6698
S'7.63%'
p6699
aS'Nevada'
p6700
asS'angels camp'
p6701
(lp6702
S'7.50%'
p6703
aS'Calaveras'
p6704
asS'sheepranch'
p6705
(lp6706
S'7.50%'
p6707
aS'Calaveras'
p6708
asS'palos verdes/peninsula'
p6709
(lp6710
S'9.00%'
p6711
aS'Los Angeles'
p6712
asS'balboa'
p6713
(lp6714
S'8.00%'
p6715
aS'Orange'
p6716
asS'red top'
p6717
(lp6718
S'8.00%'
p6719
aS'Madera'
p6720
asS'jamacha'
p6721
(lp6722
S'8.00%'
p6723
aS'San Diego'
p6724
asS'temple city'
p6725
(lp6726
S'9.00%'
p6727
aS'Los Angeles'
p6728
asS'camp pendleton'
p6729
(lp6730
S'8.00%'
p6731
aS'San Diego'
p6732
asS'beale a.f.b.'
p6733
(lp6734
S'7.50%'
p6735
aS'Yuba'
p6736
asS'north san juan'
p6737
(lp6738
S'7.63%'
p6739
aS'Nevada'
p6740
asS'lockheed'
p6741
(lp6742
S'8.25%'
p6743
aS'Santa Cruz'
p6744
asS'artois'
p6745
(lp6746
S'7.50%'
p6747
aS'Glenn'
p6748
asS'blythe'
p6749
(lp6750
S'8.00%'
p6751
aS'Riverside'
p6752
asS'willow ranch'
p6753
(lp6754
S'7.50%'
p6755
aS'Modoc'
p6756
asS'brookhurst center'
p6757
(lp6758
S'8.00%'
p6759
aS'Orange'
p6760
asS'freedom'
p6761
(lp6762
S'8.25%'
p6763
aS'Santa Cruz'
p6764
asS'el verano'
p6765
(lp6766
S'8.25%'
p6767
aS'Sonoma'
p6768
asS'rodeo'
p6769
(lp6770
S'8.50%'
p6771
aS'Contra Costa'
p6772
asS'forest falls'
p6773
(lp6774
S'8.00%'
p6775
aS'San Bernardino'
p6776
asS'san pedro'
p6777
(lp6778
S'9.00%'
p6779
aS'Los Angeles'
p6780
asS'alderpoint'
p6781
(lp6782
S'7.50%'
p6783
aS'Humboldt'
p6784
asS'di giorgio'
p6785
(lp6786
S'7.50%'
p6787
aS'Kern'
p6788
asS'lincoln village'
p6789
(lp6790
S'8.00%'
p6791
aS'San Joaquin'
p6792
asS'glenn'
p6793
(lp6794
S'7.50%'
p6795
aS'Glenn'
p6796
asS'wilsona gardens'
p6797
(lp6798
S'9.00%'
p6799
aS'Los Angeles'
p6800
asS'tierrasanta'
p6801
(lp6802
S'8.00%'
p6803
aS'San Diego'
p6804
asS'bonny doon'
p6805
(lp6806
S'8.25%'
p6807
aS'Santa Cruz'
p6808
asS'borrego springs'
p6809
(lp6810
S'8.00%'
p6811
aS'San Diego'
p6812
asS'newberry springs'
p6813
(lp6814
S'8.00%'
p6815
aS'San Bernardino'
p6816
asS'dos rios'
p6817
(lp6818
S'7.50%'
p6819
aS'Mendocino'
p6820
asS'tamal'
p6821
(lp6822
S'8.25%'
p6823
aS'Marin'
p6824
asS'cartago'
p6825
(lp6826
S'8.00%'
p6827
aS'Inyo'
p6828
asS'monte sereno'
p6829
(lp6830
S'8.50%'
p6831
aS'Santa Clara'
p6832
asS'lost hills'
p6833
(lp6834
S'7.50%'
p6835
aS'Kern'
p6836
asS'imperial'
p6837
(lp6838
S'8.00%'
p6839
aS'Imperial'
p6840
asS'adelanto'
p6841
(lp6842
S'8.00%'
p6843
aS'San Bernardino'
p6844
asS'mount hebron'
p6845
(lp6846
S'7.50%'
p6847
aS'Siskiyou'
p6848
asS'applegate'
p6849
(lp6850
S'7.50%'
p6851
aS'Placer'
p6852
asS'blossom valley'
p6853
(lp6854
S'8.50%'
p6855
aS'Santa Clara'
p6856
asS'la habra'
p6857
(lp6858
S'8.50%'
p6859
aS'Orange(LHBR)'
p6860
asS'shingle springs'
p6861
(lp6862
S'7.50%'
p6863
aS'El Dorado'
p6864
asS'brawley'
p6865
(lp6866
S'8.00%'
p6867
aS'Imperial'
p6868
asS'la mirada'
p6869
(lp6870
S'9.00%'
p6871
aS'Los Angeles'
p6872
asS'westlake village'
p6873
(lp6874
S'7.50%'
p6875
aS'Ventura'
p6876
asS'springville'
p6877
(lp6878
S'8.00%'
p6879
aS'Tulare'
p6880
asS'apple valley'
p6881
(lp6882
S'8.00%'
p6883
aS'San Bernardino'
p6884
asS'whitlow'
p6885
(lp6886
S'7.50%'
p6887
aS'Humboldt'
p6888
asS'manzanita lake'
p6889
(lp6890
S'7.50%'
p6891
aS'Shasta'
p6892
asS'tahoe vista'
p6893
(lp6894
S'7.50%'
p6895
aS'Placer'
p6896
asS'ducor'
p6897
(lp6898
S'8.00%'
p6899
aS'Tulare'
p6900
asS'citrus heights'
p6901
(lp6902
S'8.00%'
p6903
aS'Sacramento'
p6904
asS'beckwourth'
p6905
(lp6906
S'7.50%'
p6907
aS'Plumas'
p6908
asS'alviso'
p6909
(lp6910
S'8.50%'
p6911
aS'Santa Clara'
p6912
asS'meyers'
p6913
(lp6914
S'7.50%'
p6915
aS'El Dorado'
p6916
asS'goodyears bar'
p6917
(lp6918
S'7.50%'
p6919
aS'Sierra'
p6920
asS'palm desert'
p6921
(lp6922
S'8.00%'
p6923
aS'Riverside'
p6924
asS'corona del mar'
p6925
(lp6926
S'8.00%'
p6927
aS'Orange'
p6928
asS'spring garden'
p6929
(lp6930
S'7.50%'
p6931
aS'Plumas'
p6932
asS'clearlake oaks'
p6933
(lp6934
S'7.50%'
p6935
aS'Lake'
p6936
asS'mira vista'
p6937
(lp6938
S'8.50%'
p6939
aS'Contra Costa'
p6940
asS'twain harte'
p6941
(lp6942
S'7.50%'
p6943
aS'Tuolumne'
p6944
asS'san leandro'
p6945
(lp6946
S'9.25%'
p6947
aS'Alameda'
p6948
asS'swall meadows'
p6949
(lp6950
S'8.00%'
p6951
aS'Inyo'
p6952
asS'mono lake'
p6953
(lp6954
S'7.50%'
p6955
aS'Mono'
p6956
asS'cedar ridge'
p6957
(lp6958
S'7.63%'
p6959
aS'Nevada'
p6960
asS'winterhaven'
p6961
(lp6962
S'8.00%'
p6963
aS'Imperial'
p6964
asS'sepulveda'
p6965
(lp6966
S'9.00%'
p6967
aS'Los Angeles'
p6968
asS'westminster'
p6969
(lp6970
S'8.00%'
p6971
aS'Orange'
p6972
asS'dogtown'
p6973
(lp6974
S'8.25%'
p6975
aS'Marin'
p6976
asS'pacifica'
p6977
(lp6978
S'8.50%'
p6979
aS'San Mateo'
p6980
asS'buellton'
p6981
(lp6982
S'8.00%'
p6983
aS'Santa Barbara'
p6984
asS'canyon lake'
p6985
(lp6986
S'8.00%'
p6987
aS'Riverside'
p6988
asS'corcoran'
p6989
(lp6990
S'7.50%'
p6991
aS'Kings'
p6992
asS'virgilia'
p6993
(lp6994
S'7.50%'
p6995
aS'Plumas'
p6996
asS'kirkwood'
p6997
(lp6998
S'7.50%'
p6999
aS'Alpine'
p7000
asS'honby'
p7001
(lp7002
S'9.00%'
p7003
aS'Los Angeles'
p7004
asS'fields landing'
p7005
(lp7006
S'7.50%'
p7007
aS'Humboldt'
p7008
asS'montrose'
p7009
(lp7010
S'9.00%'
p7011
aS'Los Angeles'
p7012
asS'zenia'
p7013
(lp7014
S'7.50%'
p7015
aS'Trinity'
p7016
asS'soquel'
p7017
(lp7018
S'8.25%'
p7019
aS'Santa Cruz'
p7020
asS'baker'
p7021
(lp7022
S'8.00%'
p7023
aS'San Bernardino'
p7024
asS'gardena'
p7025
(lp7026
S'9.00%'
p7027
aS'Los Angeles'
p7028
asS'foster city'
p7029
(lp7030
S'8.50%'
p7031
aS'San Mateo'
p7032
asS'pescadero'
p7033
(lp7034
S'8.50%'
p7035
aS'San Mateo'
p7036
as.