(lp0
(dp1
S'Customer'
p2
S'ASH'
p3
sS'Rep'
p4
S'PJTS'
p5
sS'Amount'
p6
S'done'
p7
sS'Signed'
p8
S'n'
p9
sS'POs'
p10
g9
sS'DepinSF'
p11
g9
sS'SO'
p12
S'2243'
p13
sS'Inventory'
p14
g9
sS'Invoice'
p15
S'8470'
p16
sS'Last Billed'
p17
S''
p18
sS'Date'
p19
g18
sS'Notes'
p20
g18
sS'Job Done'
p21
g18
sa(dp22
g2
S'Ab Sikka'
p23
sg4
S'JW'
p24
sg6
S'done'
p25
sg8
g9
sg10
g9
sg11
g9
sg12
S'2341'
p26
sg14
g9
sg15
S'8574'
p27
sg17
g18
sg19
g18
sg20
g18
sg21
g18
sa(dp28
g2
S'Reliant Escrow'
p29
sg4
S'TB'
p30
sg6
S'done'
p31
sg8
g9
sg10
g9
sg11
g9
sg12
S'2336'
p32
sg14
g9
sg15
S'8569'
p33
sg17
g18
sg19
g18
sg20
g18
sg21
g18
sa(dp34
g2
S'Samual Scott'
p35
sg4
S'PJTS'
p36
sg6
S'done'
p37
sg8
S'y'
p38
sg10
S'3266'
p39
sg11
S'done'
p40
sg12
S'2189'
p41
sg14
g9
sg15
S'8534'
p42
sg17
g18
sg19
g18
sg20
g18
sg21
g18
sa(dp43
g2
S'Samual Scott'
p44
sg4
S'PJTS'
p45
sg6
S'done'
p46
sg8
g9
sg10
S'3300'
p47
sg11
g9
sg12
S'2263'
p48
sg14
g9
sg15
S'8535'
p49
sg17
g18
sg19
g18
sg20
g18
sg21
g18
sa(dp50
g2
S'Samual Scott'
p51
sg4
S'PJTS'
p52
sg6
S'done'
p53
sg8
g9
sg10
g9
sg11
g9
sg12
S'2297'
p54
sg14
g9
sg15
S'8536'
p55
sg17
g18
sg19
g18
sg20
g18
sg21
g18
sa(dp56
g2
S'Spine and Sport'
p57
sg4
S'JW'
p58
sg6
S'done'
p59
sg8
g9
sg10
g9
sg11
S'done'
p60
sg12
S'2295'
p61
sg14
S'done'
p62
sg15
S'8531'
p63
sg17
g18
sg19
g18
sg20
g18
sg21
g18
sa(dp64
g2
S'Law Offices of Kimball'
p65
sg4
S'BM'
p66
sg6
S'done'
p67
sg8
g38
sg10
g9
sg11
g9
sg12
S'2342'
p68
sg14
g9
sg15
S'8575'
p69
sg17
g18
sg19
g18
sg20
g18
sg21
g18
sa(dp70
g2
S'AV Air Pros'
p71
sg4
S'BM'
p72
sg6
S'done'
p73
sg8
g38
sg10
g9
sg11
g9
sg12
S'2344'
p74
sg14
g9
sg15
g9
sg17
g18
sg19
g18
sg20
g18
sg21
g18
sa(dp75
g2
S'Sharp'
p76
sg4
S'PJ'
p77
sg6
S'done'
p78
sg8
g38
sg10
S'3268'
p79
sg11
g9
sg12
S'2207'
p80
sg14
g9
sg15
S'8513'
p81
sg17
g18
sg19
g18
sg20
g18
sg21
g18
sa(dp82
g2
S'Young and Co'
p83
sg4
S'JW'
p84
sg6
S'done'
p85
sg8
g38
sg10
g9
sg11
S'done'
p86
sg12
S'2138'
p87
sg14
g9
sg15
g18
sg17
g18
sg19
g18
sg20
S'cancelled'
p88
sg21
g18
sa(dp89
g2
S'Summers and shives'
p90
sg4
S'JW'
p91
sg6
S'done'
p92
sg8
g38
sg10
S'3326'
p93
sg11
S'done'
p94
sg12
S'2298'
p95
sg14
g9
sg15
S'8578'
p96
sg17
g18
sg19
g18
sg20
S'janine mailing check 11/12'
p97
sg21
g18
sa(dp98
g2
S'Summers and shives'
p99
sg4
S'JW'
p100
sg6
S'done'
p101
sg8
g9
sg10
g9
sg11
S'done'
p102
sg12
S'2303'
p103
sg14
g9
sg15
S'8577'
p104
sg17
g18
sg19
g18
sg20
S'janine mailing check 11/12'
p105
sg21
g18
sa(dp106
g2
S'Summers and shives'
p107
sg4
S'JW'
p108
sg6
S'done'
p109
sg8
g9
sg10
g9
sg11
S'done'
p110
sg12
S'2311'
p111
sg14
S'm'
p112
sg15
S'8579'
p113
sg17
g18
sg19
g18
sg20
S'janine mailing check 11/12'
p114
sg21
g18
sa(dp115
g2
S'Summers and shives'
p116
sg4
S'JW'
p117
sg6
S'done'
p118
sg8
g9
sg10
g9
sg11
S'done'
p119
sg12
S'2312'
p120
sg14
g9
sg15
S'8580'
p121
sg17
g18
sg19
g18
sg20
S'janine mailing check 11/12'
p122
sg21
g18
sa(dp123
g2
S'First Choice'
p124
sg4
S'JW'
p125
sg6
S'done'
p126
sg8
g9
sg10
S'3356'
p127
sg11
S'done'
p128
sg12
S'2333'
p129
sg14
g9
sg15
S'8576'
p130
sg17
g18
sg19
g18
sg20
g18
sg21
g18
sa(dp131
g2
S'Hope for Healing'
p132
sg4
S'JM'
p133
sg6
S'done'
p134
sg8
g9
sg10
g9
sg11
g9
sg12
S'2339'
p135
sg14
S'done'
p136
sg15
S'8573'
p137
sg17
g18
sg19
g18
sg20
g18
sg21
g18
sa(dp138
g2
S'Lindsey'
p139
sg4
S'RC'
p140
sg6
S'done'
p141
sg8
g9
sg10
S'3366-7'
p142
sg11
g9
sg12
S'2349'
p143
sg14
g9
sg15
S'8583'
p144
sg17
g18
sg19
g18
sg20
g18
sg21
g18
sa(dp145
g2
S'Doug Fregolle'
p146
sg4
S'RC'
p147
sg6
S'done'
p148
sg8
g9
sg10
g9
sg11
g9
sg12
S'2348'
p149
sg14
g9
sg15
S'8581'
p150
sg17
g18
sg19
g18
sg20
g18
sg21
g18
sa(dp151
g2
S'Academy Mortgage'
p152
sg4
S'JW'
p153
sg6
S'done'
p154
sg8
g9
sg10
g9
sg11
S'done'
p155
sg12
S'2293'
p156
sg14
S'done'
p157
sg15
S'8588'
p158
sg17
g18
sg19
g18
sg20
g18
sg21
g18
sa(dp159
g2
S'RG Industries'
p160
sg4
S'JM'
p161
sg6
S'done'
p162
sg8
g9
sg10
S'3323'
p163
sg11
S'done'
p164
sg12
S'2300'
p165
sg14
S'done'
p166
sg15
S'8591'
p167
sg17
g18
sg19
g18
sg20
g18
sg21
g18
sa(dp168
g2
S'Orthomed, LLC'
p169
sg4
S'RC'
p170
sg6
S'done'
p171
sg8
g38
sg10
g9
sg11
g9
sg12
S'2345'
p172
sg14
g9
sg15
S'8590'
p173
sg17
g18
sg19
g18
sg20
g18
sg21
S'11/13/2013'
p174
sa(dp175
g2
S'Warren and'
p176
sg4
S'RC'
p177
sg6
S'done'
p178
sg8
g38
sg10
g9
sg11
g9
sg12
S'2353'
p179
sg14
S'done'
p180
sg15
S'8587'
p181
sg17
g18
sg19
g18
sg20
g18
sg21
g18
sa(dp182
g2
S'Vance'
p183
sg4
S'BM'
p184
sg6
S'done'
p185
sg8
g9
sg10
S'3373'
p186
sg11
g9
sg12
S'2354'
p187
sg14
S'done'
p188
sg15
S'8589'
p189
sg17
g18
sg19
g18
sg20
g18
sg21
g18
sa(dp190
g2
S'Vindon'
p191
sg4
S'RC'
p192
sg6
S'done'
p193
sg8
g9
sg10
S'3349'
p194
sg11
g9
sg12
S'2325'
p195
sg14
g9
sg15
S'8560'
p196
sg17
g18
sg19
g18
sg20
g18
sg21
g18
sa(dp197
g2
S'First Choice'
p198
sg4
S'JW'
p199
sg6
S'done'
p200
sg8
g38
sg10
S'3379'
p201
sg11
g9
sg12
S'2357'
p202
sg14
g9
sg15
S'8592'
p203
sg17
g18
sg19
g18
sg20
g18
sg21
g18
sa(dp204
g2
S'Lisa Strong DEsign'
p205
sg4
S'RC'
p206
sg6
S'done'
p207
sg8
g9
sg10
g9
sg11
g9
sg12
S'2358'
p208
sg14
g9
sg15
S'8593'
p209
sg17
g18
sg19
g18
sg20
g18
sg21
g18
sa(dp210
g2
S'ASH El Cajon'
p211
sg4
S'PJTS'
p212
sg6
S'done'
p213
sg8
g38
sg10
g9
sg11
S'done'
p214
sg12
S'1913'
p215
sg14
g9
sg15
S'8421'
p216
sg17
g18
sg19
g18
sg20
g18
sg21
g18
sa(dp217
g2
S'ASH'
p218
sg4
S'PJTS'
p219
sg6
S'done'
p220
sg8
g38
sg10
g9
sg11
S'done'
p221
sg12
S'2069'
p222
sg14
g9
sg15
S'8507'
p223
sg17
g18
sg19
g18
sg20
g18
sg21
g18
sa(dp224
g2
S'ASH Carmel'
p225
sg4
S'PJTS'
p226
sg6
S'done'
p227
sg8
g38
sg10
S'3215-6'
p228
sg11
g9
sg12
S'2105'
p229
sg14
g9
sg15
S'8508'
p230
sg17
g18
sg19
g18
sg20
g18
sg21
g18
sa(dp231
g2
S'Cha Industries'
p232
sg4
S'BM'
p233
sg6
S'done'
p234
sg8
g38
sg10
S'3345'
p235
sg11
S'done'
p236
sg12
S'2323'
p237
sg14
S'done'
p238
sg15
S'8600'
p239
sg17
g18
sg19
g18
sg20
g18
sg21
g18
sa(dp240
g2
S'Nationwide Office Furniture'
p241
sg4
S'HS'
p242
sg6
S'done'
p243
sg8
g9
sg10
g9
sg11
g9
sg12
S'2350'
p244
sg14
g9
sg15
S'8584'
p245
sg17
g18
sg19
g18
sg20
g18
sg21
g18
sa(dp246
g2
S'KDT'
p247
sg4
S'RC'
p248
sg6
S'done'
p249
sg8
g18
sg10
S'3370-2'
p250
sg11
S'done'
p251
sg12
S'2352'
p252
sg14
g9
sg15
S'8597'
p253
sg17
g18
sg19
g18
sg20
g18
sg21
g18
sa(dp254
g2
S'Aegis'
p255
sg4
S'JW'
p256
sg6
S'done'
p257
sg8
g9
sg10
g9
sg11
g9
sg12
S'2363'
p258
sg14
S'done'
p259
sg15
S'8598'
p260
sg17
g18
sg19
g18
sg20
g18
sg21
g18
sa(dp261
g2
S'Hitem'
p262
sg4
S'JW'
p263
sg6
S'done'
p264
sg8
g9
sg10
g9
sg11
g9
sg12
S'2364'
p265
sg14
S'done'
p266
sg15
S'8599'
p267
sg17
g18
sg19
g18
sg20
g18
sg21
g18
sa(dp268
g2
S'Speech Tree'
p269
sg4
S'JW'
p270
sg6
S'done'
p271
sg8
g9
sg10
g9
sg11
g9
sg12
S'2368'
p272
sg14
g9
sg15
S'8602'
p273
sg17
g18
sg19
g18
sg20
g18
sg21
g18
sa(dp274
g2
S'DeCarlos'
p275
sg4
S'RC'
p276
sg6
S'done'
p277
sg8
g9
sg10
S'3363'
p278
sg11
g9
sg12
S'2340'
p279
sg14
g9
sg15
S'8595'
p280
sg17
g18
sg19
g18
sg20
g18
sg21
g18
sa(dp281
g2
S'EagleBurgman EJS'
p282
sg4
S'PJTS'
p283
sg6
S'done'
p284
sg8
g38
sg10
g9
sg11
g18
sg12
S'2351'
p285
sg14
g9
sg15
S'8596'
p286
sg17
g18
sg19
g18
sg20
g18
sg21
g18
sa(dp287
g2
S'Carlsbad Safety'
p288
sg4
S'TB'
p289
sg6
S'done'
p290
sg8
g38
sg10
g9
sg11
g9
sg12
S'2356'
p291
sg14
g9
sg15
S'8594'
p292
sg17
g18
sg19
g18
sg20
g18
sg21
g18
sa(dp293
g2
S'Tactical Edge'
p294
sg4
S'JW'
p295
sg6
S'done'
p296
sg8
g9
sg10
g9
sg11
S'done'
p297
sg12
S'2359'
p298
sg14
g9
sg15
S'8606'
p299
sg17
g18
sg19
g18
sg20
g18
sg21
g18
sa(dp300
g2
S'Law Offices of Kimball'
p301
sg4
S'BM'
p302
sg6
S'done'
p303
sg8
g9
sg10
g9
sg11
g9
sg12
S'2370'
p304
sg14
g9
sg15
S'8604'
p305
sg17
g18
sg19
g18
sg20
g18
sg21
g18
sa(dp306
g2
S'Ray Rland'
p307
sg4
S'JW'
p308
sg6
S'done'
p309
sg8
g9
sg10
g9
sg11
g9
sg12
S'2372'
p310
sg14
g9
sg15
S'8605'
p311
sg17
g18
sg19
g18
sg20
g18
sg21
g18
sa(dp312
g2
S'Dave Murphy'
p313
sg4
S'JW'
p314
sg6
S'done'
p315
sg8
g9
sg10
g9
sg11
g9
sg12
S'2366'
p316
sg14
g9
sg15
S'8601'
p317
sg17
g18
sg19
g18
sg20
g18
sg21
g18
sa(dp318
g2
S'Zaszou'
p319
sg4
S'RC'
p320
sg6
S'done'
p321
sg8
g9
sg10
g9
sg11
g9
sg12
S'2374'
p322
sg14
g9
sg15
g18
sg17
g18
sg19
g18
sg20
S'sfs mailing check 12/2'
p323
sg21
g18
sa(dp324
g2
S'Martin Plumbing'
p325
sg4
S'JW'
p326
sg6
S'done'
p327
sg8
g9
sg10
g9
sg11
g9
sg12
S'2369'
p328
sg14
g9
sg15
S'8603'
p329
sg17
g18
sg19
g18
sg20
g18
sg21
g18
sa(dp330
g2
S'Summers and shives'
p331
sg4
S'JW'
p332
sg6
S'done'
p333
sg8
g9
sg10
g9
sg11
S'paid'
p334
sg12
S'2346'
p335
sg14
g9
sg15
S'8361'
p336
sg17
g18
sg19
g18
sg20
g18
sg21
g18
sa(dp337
g2
S'First American Construction'
p338
sg4
S'JW'
p339
sg6
S'done'
p340
sg8
g9
sg10
g9
sg11
g9
sg12
S'2380'
p341
sg14
g9
sg15
S'8614'
p342
sg17
g18
sg19
g18
sg20
g18
sg21
g18
sa(dp343
g2
S'360 Dynamic'
p344
sg4
S'HS'
p345
sg6
S'done'
p346
sg8
g9
sg10
g9
sg11
g9
sg12
S'2375'
p347
sg14
g9
sg15
S'8609'
p348
sg17
g18
sg19
g18
sg20
g18
sg21
g18
sa.